   1              		.syntax unified
   2              		.cpu cortex-m3
   3              		.fpu softvfp
   4              		.eabi_attribute 20, 1
   5              		.eabi_attribute 21, 1
   6              		.eabi_attribute 23, 3
   7              		.eabi_attribute 24, 1
   8              		.eabi_attribute 25, 1
   9              		.eabi_attribute 26, 1
  10              		.eabi_attribute 30, 4
  11              		.eabi_attribute 18, 4
  12              		.thumb
  13              		.file	"core_cm3.c"
  23              	.Ltext0:
  24              		.file 1 "../STM32F10x_StdPeriph_Lib_V3.4.0/Libraries/CMSIS/CM3/CoreSupport/core_cm3.c"
 894              		.align	1
 895              		.global	__get_PSP
 896              		.thumb
 897              		.thumb_func
 899              	__get_PSP:
 900              	.LFB0:
   1:../STM32F10x_StdPeriph_Lib_V3.4.0/Libraries/CMSIS/CM3/CoreSupport/core_cm3.c **** /**************************************************************************//**
   2:../STM32F10x_StdPeriph_Lib_V3.4.0/Libraries/CMSIS/CM3/CoreSupport/core_cm3.c ****  * @file     core_cm3.c
   3:../STM32F10x_StdPeriph_Lib_V3.4.0/Libraries/CMSIS/CM3/CoreSupport/core_cm3.c ****  * @brief    CMSIS Cortex-M3 Core Peripheral Access Layer Source File
   4:../STM32F10x_StdPeriph_Lib_V3.4.0/Libraries/CMSIS/CM3/CoreSupport/core_cm3.c ****  * @version  V1.30
   5:../STM32F10x_StdPeriph_Lib_V3.4.0/Libraries/CMSIS/CM3/CoreSupport/core_cm3.c ****  * @date     30. October 2009
   6:../STM32F10x_StdPeriph_Lib_V3.4.0/Libraries/CMSIS/CM3/CoreSupport/core_cm3.c ****  *
   7:../STM32F10x_StdPeriph_Lib_V3.4.0/Libraries/CMSIS/CM3/CoreSupport/core_cm3.c ****  * @note
   8:../STM32F10x_StdPeriph_Lib_V3.4.0/Libraries/CMSIS/CM3/CoreSupport/core_cm3.c ****  * Copyright (C) 2009 ARM Limited. All rights reserved.
   9:../STM32F10x_StdPeriph_Lib_V3.4.0/Libraries/CMSIS/CM3/CoreSupport/core_cm3.c ****  *
  10:../STM32F10x_StdPeriph_Lib_V3.4.0/Libraries/CMSIS/CM3/CoreSupport/core_cm3.c ****  * @par
  11:../STM32F10x_StdPeriph_Lib_V3.4.0/Libraries/CMSIS/CM3/CoreSupport/core_cm3.c ****  * ARM Limited (ARM) is supplying this software for use with Cortex-M 
  12:../STM32F10x_StdPeriph_Lib_V3.4.0/Libraries/CMSIS/CM3/CoreSupport/core_cm3.c ****  * processor based microcontrollers.  This file can be freely distributed 
  13:../STM32F10x_StdPeriph_Lib_V3.4.0/Libraries/CMSIS/CM3/CoreSupport/core_cm3.c ****  * within development tools that are supporting such ARM based processors. 
  14:../STM32F10x_StdPeriph_Lib_V3.4.0/Libraries/CMSIS/CM3/CoreSupport/core_cm3.c ****  *
  15:../STM32F10x_StdPeriph_Lib_V3.4.0/Libraries/CMSIS/CM3/CoreSupport/core_cm3.c ****  * @par
  16:../STM32F10x_StdPeriph_Lib_V3.4.0/Libraries/CMSIS/CM3/CoreSupport/core_cm3.c ****  * THIS SOFTWARE IS PROVIDED "AS IS".  NO WARRANTIES, WHETHER EXPRESS, IMPLIED
  17:../STM32F10x_StdPeriph_Lib_V3.4.0/Libraries/CMSIS/CM3/CoreSupport/core_cm3.c ****  * OR STATUTORY, INCLUDING, BUT NOT LIMITED TO, IMPLIED WARRANTIES OF
  18:../STM32F10x_StdPeriph_Lib_V3.4.0/Libraries/CMSIS/CM3/CoreSupport/core_cm3.c ****  * MERCHANTABILITY AND FITNESS FOR A PARTICULAR PURPOSE APPLY TO THIS SOFTWARE.
  19:../STM32F10x_StdPeriph_Lib_V3.4.0/Libraries/CMSIS/CM3/CoreSupport/core_cm3.c ****  * ARM SHALL NOT, IN ANY CIRCUMSTANCES, BE LIABLE FOR SPECIAL, INCIDENTAL, OR
  20:../STM32F10x_StdPeriph_Lib_V3.4.0/Libraries/CMSIS/CM3/CoreSupport/core_cm3.c ****  * CONSEQUENTIAL DAMAGES, FOR ANY REASON WHATSOEVER.
  21:../STM32F10x_StdPeriph_Lib_V3.4.0/Libraries/CMSIS/CM3/CoreSupport/core_cm3.c ****  *
  22:../STM32F10x_StdPeriph_Lib_V3.4.0/Libraries/CMSIS/CM3/CoreSupport/core_cm3.c ****  ******************************************************************************/
  23:../STM32F10x_StdPeriph_Lib_V3.4.0/Libraries/CMSIS/CM3/CoreSupport/core_cm3.c **** 
  24:../STM32F10x_StdPeriph_Lib_V3.4.0/Libraries/CMSIS/CM3/CoreSupport/core_cm3.c **** #include <stdint.h>
  25:../STM32F10x_StdPeriph_Lib_V3.4.0/Libraries/CMSIS/CM3/CoreSupport/core_cm3.c **** 
  26:../STM32F10x_StdPeriph_Lib_V3.4.0/Libraries/CMSIS/CM3/CoreSupport/core_cm3.c **** /* define compiler specific symbols */
  27:../STM32F10x_StdPeriph_Lib_V3.4.0/Libraries/CMSIS/CM3/CoreSupport/core_cm3.c **** #if defined ( __CC_ARM   )
  28:../STM32F10x_StdPeriph_Lib_V3.4.0/Libraries/CMSIS/CM3/CoreSupport/core_cm3.c ****   #define __ASM            __asm                                      /*!< asm keyword for ARM Comp
  29:../STM32F10x_StdPeriph_Lib_V3.4.0/Libraries/CMSIS/CM3/CoreSupport/core_cm3.c ****   #define __INLINE         __inline                                   /*!< inline keyword for ARM C
  30:../STM32F10x_StdPeriph_Lib_V3.4.0/Libraries/CMSIS/CM3/CoreSupport/core_cm3.c **** 
  31:../STM32F10x_StdPeriph_Lib_V3.4.0/Libraries/CMSIS/CM3/CoreSupport/core_cm3.c **** #elif defined ( __ICCARM__ )
  32:../STM32F10x_StdPeriph_Lib_V3.4.0/Libraries/CMSIS/CM3/CoreSupport/core_cm3.c ****   #define __ASM           __asm                                       /*!< asm keyword for IAR Comp
  33:../STM32F10x_StdPeriph_Lib_V3.4.0/Libraries/CMSIS/CM3/CoreSupport/core_cm3.c ****   #define __INLINE        inline                                      /*!< inline keyword for IAR C
  34:../STM32F10x_StdPeriph_Lib_V3.4.0/Libraries/CMSIS/CM3/CoreSupport/core_cm3.c **** 
  35:../STM32F10x_StdPeriph_Lib_V3.4.0/Libraries/CMSIS/CM3/CoreSupport/core_cm3.c **** #elif defined   (  __GNUC__  )
  36:../STM32F10x_StdPeriph_Lib_V3.4.0/Libraries/CMSIS/CM3/CoreSupport/core_cm3.c ****   #define __ASM            __asm                                      /*!< asm keyword for GNU Comp
  37:../STM32F10x_StdPeriph_Lib_V3.4.0/Libraries/CMSIS/CM3/CoreSupport/core_cm3.c ****   #define __INLINE         inline                                     /*!< inline keyword for GNU C
  38:../STM32F10x_StdPeriph_Lib_V3.4.0/Libraries/CMSIS/CM3/CoreSupport/core_cm3.c **** 
  39:../STM32F10x_StdPeriph_Lib_V3.4.0/Libraries/CMSIS/CM3/CoreSupport/core_cm3.c **** #elif defined   (  __TASKING__  )
  40:../STM32F10x_StdPeriph_Lib_V3.4.0/Libraries/CMSIS/CM3/CoreSupport/core_cm3.c ****   #define __ASM            __asm                                      /*!< asm keyword for TASKING 
  41:../STM32F10x_StdPeriph_Lib_V3.4.0/Libraries/CMSIS/CM3/CoreSupport/core_cm3.c ****   #define __INLINE         inline                                     /*!< inline keyword for TASKI
  42:../STM32F10x_StdPeriph_Lib_V3.4.0/Libraries/CMSIS/CM3/CoreSupport/core_cm3.c **** 
  43:../STM32F10x_StdPeriph_Lib_V3.4.0/Libraries/CMSIS/CM3/CoreSupport/core_cm3.c **** #endif
  44:../STM32F10x_StdPeriph_Lib_V3.4.0/Libraries/CMSIS/CM3/CoreSupport/core_cm3.c **** 
  45:../STM32F10x_StdPeriph_Lib_V3.4.0/Libraries/CMSIS/CM3/CoreSupport/core_cm3.c **** 
  46:../STM32F10x_StdPeriph_Lib_V3.4.0/Libraries/CMSIS/CM3/CoreSupport/core_cm3.c **** /* ###################  Compiler specific Intrinsics  ########################### */
  47:../STM32F10x_StdPeriph_Lib_V3.4.0/Libraries/CMSIS/CM3/CoreSupport/core_cm3.c **** 
  48:../STM32F10x_StdPeriph_Lib_V3.4.0/Libraries/CMSIS/CM3/CoreSupport/core_cm3.c **** #if defined ( __CC_ARM   ) /*------------------RealView Compiler -----------------*/
  49:../STM32F10x_StdPeriph_Lib_V3.4.0/Libraries/CMSIS/CM3/CoreSupport/core_cm3.c **** /* ARM armcc specific functions */
  50:../STM32F10x_StdPeriph_Lib_V3.4.0/Libraries/CMSIS/CM3/CoreSupport/core_cm3.c **** 
  51:../STM32F10x_StdPeriph_Lib_V3.4.0/Libraries/CMSIS/CM3/CoreSupport/core_cm3.c **** /**
  52:../STM32F10x_StdPeriph_Lib_V3.4.0/Libraries/CMSIS/CM3/CoreSupport/core_cm3.c ****  * @brief  Return the Process Stack Pointer
  53:../STM32F10x_StdPeriph_Lib_V3.4.0/Libraries/CMSIS/CM3/CoreSupport/core_cm3.c ****  *
  54:../STM32F10x_StdPeriph_Lib_V3.4.0/Libraries/CMSIS/CM3/CoreSupport/core_cm3.c ****  * @return ProcessStackPointer
  55:../STM32F10x_StdPeriph_Lib_V3.4.0/Libraries/CMSIS/CM3/CoreSupport/core_cm3.c ****  *
  56:../STM32F10x_StdPeriph_Lib_V3.4.0/Libraries/CMSIS/CM3/CoreSupport/core_cm3.c ****  * Return the actual process stack pointer
  57:../STM32F10x_StdPeriph_Lib_V3.4.0/Libraries/CMSIS/CM3/CoreSupport/core_cm3.c ****  */
  58:../STM32F10x_StdPeriph_Lib_V3.4.0/Libraries/CMSIS/CM3/CoreSupport/core_cm3.c **** __ASM uint32_t __get_PSP(void)
  59:../STM32F10x_StdPeriph_Lib_V3.4.0/Libraries/CMSIS/CM3/CoreSupport/core_cm3.c **** {
  60:../STM32F10x_StdPeriph_Lib_V3.4.0/Libraries/CMSIS/CM3/CoreSupport/core_cm3.c ****   mrs r0, psp
  61:../STM32F10x_StdPeriph_Lib_V3.4.0/Libraries/CMSIS/CM3/CoreSupport/core_cm3.c ****   bx lr
  62:../STM32F10x_StdPeriph_Lib_V3.4.0/Libraries/CMSIS/CM3/CoreSupport/core_cm3.c **** }
  63:../STM32F10x_StdPeriph_Lib_V3.4.0/Libraries/CMSIS/CM3/CoreSupport/core_cm3.c **** 
  64:../STM32F10x_StdPeriph_Lib_V3.4.0/Libraries/CMSIS/CM3/CoreSupport/core_cm3.c **** /**
  65:../STM32F10x_StdPeriph_Lib_V3.4.0/Libraries/CMSIS/CM3/CoreSupport/core_cm3.c ****  * @brief  Set the Process Stack Pointer
  66:../STM32F10x_StdPeriph_Lib_V3.4.0/Libraries/CMSIS/CM3/CoreSupport/core_cm3.c ****  *
  67:../STM32F10x_StdPeriph_Lib_V3.4.0/Libraries/CMSIS/CM3/CoreSupport/core_cm3.c ****  * @param  topOfProcStack  Process Stack Pointer
  68:../STM32F10x_StdPeriph_Lib_V3.4.0/Libraries/CMSIS/CM3/CoreSupport/core_cm3.c ****  *
  69:../STM32F10x_StdPeriph_Lib_V3.4.0/Libraries/CMSIS/CM3/CoreSupport/core_cm3.c ****  * Assign the value ProcessStackPointer to the MSP 
  70:../STM32F10x_StdPeriph_Lib_V3.4.0/Libraries/CMSIS/CM3/CoreSupport/core_cm3.c ****  * (process stack pointer) Cortex processor register
  71:../STM32F10x_StdPeriph_Lib_V3.4.0/Libraries/CMSIS/CM3/CoreSupport/core_cm3.c ****  */
  72:../STM32F10x_StdPeriph_Lib_V3.4.0/Libraries/CMSIS/CM3/CoreSupport/core_cm3.c **** __ASM void __set_PSP(uint32_t topOfProcStack)
  73:../STM32F10x_StdPeriph_Lib_V3.4.0/Libraries/CMSIS/CM3/CoreSupport/core_cm3.c **** {
  74:../STM32F10x_StdPeriph_Lib_V3.4.0/Libraries/CMSIS/CM3/CoreSupport/core_cm3.c ****   msr psp, r0
  75:../STM32F10x_StdPeriph_Lib_V3.4.0/Libraries/CMSIS/CM3/CoreSupport/core_cm3.c ****   bx lr
  76:../STM32F10x_StdPeriph_Lib_V3.4.0/Libraries/CMSIS/CM3/CoreSupport/core_cm3.c **** }
  77:../STM32F10x_StdPeriph_Lib_V3.4.0/Libraries/CMSIS/CM3/CoreSupport/core_cm3.c **** 
  78:../STM32F10x_StdPeriph_Lib_V3.4.0/Libraries/CMSIS/CM3/CoreSupport/core_cm3.c **** /**
  79:../STM32F10x_StdPeriph_Lib_V3.4.0/Libraries/CMSIS/CM3/CoreSupport/core_cm3.c ****  * @brief  Return the Main Stack Pointer
  80:../STM32F10x_StdPeriph_Lib_V3.4.0/Libraries/CMSIS/CM3/CoreSupport/core_cm3.c ****  *
  81:../STM32F10x_StdPeriph_Lib_V3.4.0/Libraries/CMSIS/CM3/CoreSupport/core_cm3.c ****  * @return Main Stack Pointer
  82:../STM32F10x_StdPeriph_Lib_V3.4.0/Libraries/CMSIS/CM3/CoreSupport/core_cm3.c ****  *
  83:../STM32F10x_StdPeriph_Lib_V3.4.0/Libraries/CMSIS/CM3/CoreSupport/core_cm3.c ****  * Return the current value of the MSP (main stack pointer)
  84:../STM32F10x_StdPeriph_Lib_V3.4.0/Libraries/CMSIS/CM3/CoreSupport/core_cm3.c ****  * Cortex processor register
  85:../STM32F10x_StdPeriph_Lib_V3.4.0/Libraries/CMSIS/CM3/CoreSupport/core_cm3.c ****  */
  86:../STM32F10x_StdPeriph_Lib_V3.4.0/Libraries/CMSIS/CM3/CoreSupport/core_cm3.c **** __ASM uint32_t __get_MSP(void)
  87:../STM32F10x_StdPeriph_Lib_V3.4.0/Libraries/CMSIS/CM3/CoreSupport/core_cm3.c **** {
  88:../STM32F10x_StdPeriph_Lib_V3.4.0/Libraries/CMSIS/CM3/CoreSupport/core_cm3.c ****   mrs r0, msp
  89:../STM32F10x_StdPeriph_Lib_V3.4.0/Libraries/CMSIS/CM3/CoreSupport/core_cm3.c ****   bx lr
  90:../STM32F10x_StdPeriph_Lib_V3.4.0/Libraries/CMSIS/CM3/CoreSupport/core_cm3.c **** }
  91:../STM32F10x_StdPeriph_Lib_V3.4.0/Libraries/CMSIS/CM3/CoreSupport/core_cm3.c **** 
  92:../STM32F10x_StdPeriph_Lib_V3.4.0/Libraries/CMSIS/CM3/CoreSupport/core_cm3.c **** /**
  93:../STM32F10x_StdPeriph_Lib_V3.4.0/Libraries/CMSIS/CM3/CoreSupport/core_cm3.c ****  * @brief  Set the Main Stack Pointer
  94:../STM32F10x_StdPeriph_Lib_V3.4.0/Libraries/CMSIS/CM3/CoreSupport/core_cm3.c ****  *
  95:../STM32F10x_StdPeriph_Lib_V3.4.0/Libraries/CMSIS/CM3/CoreSupport/core_cm3.c ****  * @param  topOfMainStack  Main Stack Pointer
  96:../STM32F10x_StdPeriph_Lib_V3.4.0/Libraries/CMSIS/CM3/CoreSupport/core_cm3.c ****  *
  97:../STM32F10x_StdPeriph_Lib_V3.4.0/Libraries/CMSIS/CM3/CoreSupport/core_cm3.c ****  * Assign the value mainStackPointer to the MSP 
  98:../STM32F10x_StdPeriph_Lib_V3.4.0/Libraries/CMSIS/CM3/CoreSupport/core_cm3.c ****  * (main stack pointer) Cortex processor register
  99:../STM32F10x_StdPeriph_Lib_V3.4.0/Libraries/CMSIS/CM3/CoreSupport/core_cm3.c ****  */
 100:../STM32F10x_StdPeriph_Lib_V3.4.0/Libraries/CMSIS/CM3/CoreSupport/core_cm3.c **** __ASM void __set_MSP(uint32_t mainStackPointer)
 101:../STM32F10x_StdPeriph_Lib_V3.4.0/Libraries/CMSIS/CM3/CoreSupport/core_cm3.c **** {
 102:../STM32F10x_StdPeriph_Lib_V3.4.0/Libraries/CMSIS/CM3/CoreSupport/core_cm3.c ****   msr msp, r0
 103:../STM32F10x_StdPeriph_Lib_V3.4.0/Libraries/CMSIS/CM3/CoreSupport/core_cm3.c ****   bx lr
 104:../STM32F10x_StdPeriph_Lib_V3.4.0/Libraries/CMSIS/CM3/CoreSupport/core_cm3.c **** }
 105:../STM32F10x_StdPeriph_Lib_V3.4.0/Libraries/CMSIS/CM3/CoreSupport/core_cm3.c **** 
 106:../STM32F10x_StdPeriph_Lib_V3.4.0/Libraries/CMSIS/CM3/CoreSupport/core_cm3.c **** /**
 107:../STM32F10x_StdPeriph_Lib_V3.4.0/Libraries/CMSIS/CM3/CoreSupport/core_cm3.c ****  * @brief  Reverse byte order in unsigned short value
 108:../STM32F10x_StdPeriph_Lib_V3.4.0/Libraries/CMSIS/CM3/CoreSupport/core_cm3.c ****  *
 109:../STM32F10x_StdPeriph_Lib_V3.4.0/Libraries/CMSIS/CM3/CoreSupport/core_cm3.c ****  * @param   value  value to reverse
 110:../STM32F10x_StdPeriph_Lib_V3.4.0/Libraries/CMSIS/CM3/CoreSupport/core_cm3.c ****  * @return         reversed value
 111:../STM32F10x_StdPeriph_Lib_V3.4.0/Libraries/CMSIS/CM3/CoreSupport/core_cm3.c ****  *
 112:../STM32F10x_StdPeriph_Lib_V3.4.0/Libraries/CMSIS/CM3/CoreSupport/core_cm3.c ****  * Reverse byte order in unsigned short value
 113:../STM32F10x_StdPeriph_Lib_V3.4.0/Libraries/CMSIS/CM3/CoreSupport/core_cm3.c ****  */
 114:../STM32F10x_StdPeriph_Lib_V3.4.0/Libraries/CMSIS/CM3/CoreSupport/core_cm3.c **** __ASM uint32_t __REV16(uint16_t value)
 115:../STM32F10x_StdPeriph_Lib_V3.4.0/Libraries/CMSIS/CM3/CoreSupport/core_cm3.c **** {
 116:../STM32F10x_StdPeriph_Lib_V3.4.0/Libraries/CMSIS/CM3/CoreSupport/core_cm3.c ****   rev16 r0, r0
 117:../STM32F10x_StdPeriph_Lib_V3.4.0/Libraries/CMSIS/CM3/CoreSupport/core_cm3.c ****   bx lr
 118:../STM32F10x_StdPeriph_Lib_V3.4.0/Libraries/CMSIS/CM3/CoreSupport/core_cm3.c **** }
 119:../STM32F10x_StdPeriph_Lib_V3.4.0/Libraries/CMSIS/CM3/CoreSupport/core_cm3.c **** 
 120:../STM32F10x_StdPeriph_Lib_V3.4.0/Libraries/CMSIS/CM3/CoreSupport/core_cm3.c **** /**
 121:../STM32F10x_StdPeriph_Lib_V3.4.0/Libraries/CMSIS/CM3/CoreSupport/core_cm3.c ****  * @brief  Reverse byte order in signed short value with sign extension to integer
 122:../STM32F10x_StdPeriph_Lib_V3.4.0/Libraries/CMSIS/CM3/CoreSupport/core_cm3.c ****  *
 123:../STM32F10x_StdPeriph_Lib_V3.4.0/Libraries/CMSIS/CM3/CoreSupport/core_cm3.c ****  * @param   value  value to reverse
 124:../STM32F10x_StdPeriph_Lib_V3.4.0/Libraries/CMSIS/CM3/CoreSupport/core_cm3.c ****  * @return         reversed value
 125:../STM32F10x_StdPeriph_Lib_V3.4.0/Libraries/CMSIS/CM3/CoreSupport/core_cm3.c ****  *
 126:../STM32F10x_StdPeriph_Lib_V3.4.0/Libraries/CMSIS/CM3/CoreSupport/core_cm3.c ****  * Reverse byte order in signed short value with sign extension to integer
 127:../STM32F10x_StdPeriph_Lib_V3.4.0/Libraries/CMSIS/CM3/CoreSupport/core_cm3.c ****  */
 128:../STM32F10x_StdPeriph_Lib_V3.4.0/Libraries/CMSIS/CM3/CoreSupport/core_cm3.c **** __ASM int32_t __REVSH(int16_t value)
 129:../STM32F10x_StdPeriph_Lib_V3.4.0/Libraries/CMSIS/CM3/CoreSupport/core_cm3.c **** {
 130:../STM32F10x_StdPeriph_Lib_V3.4.0/Libraries/CMSIS/CM3/CoreSupport/core_cm3.c ****   revsh r0, r0
 131:../STM32F10x_StdPeriph_Lib_V3.4.0/Libraries/CMSIS/CM3/CoreSupport/core_cm3.c ****   bx lr
 132:../STM32F10x_StdPeriph_Lib_V3.4.0/Libraries/CMSIS/CM3/CoreSupport/core_cm3.c **** }
 133:../STM32F10x_StdPeriph_Lib_V3.4.0/Libraries/CMSIS/CM3/CoreSupport/core_cm3.c **** 
 134:../STM32F10x_StdPeriph_Lib_V3.4.0/Libraries/CMSIS/CM3/CoreSupport/core_cm3.c **** 
 135:../STM32F10x_StdPeriph_Lib_V3.4.0/Libraries/CMSIS/CM3/CoreSupport/core_cm3.c **** #if (__ARMCC_VERSION < 400000)
 136:../STM32F10x_StdPeriph_Lib_V3.4.0/Libraries/CMSIS/CM3/CoreSupport/core_cm3.c **** 
 137:../STM32F10x_StdPeriph_Lib_V3.4.0/Libraries/CMSIS/CM3/CoreSupport/core_cm3.c **** /**
 138:../STM32F10x_StdPeriph_Lib_V3.4.0/Libraries/CMSIS/CM3/CoreSupport/core_cm3.c ****  * @brief  Remove the exclusive lock created by ldrex
 139:../STM32F10x_StdPeriph_Lib_V3.4.0/Libraries/CMSIS/CM3/CoreSupport/core_cm3.c ****  *
 140:../STM32F10x_StdPeriph_Lib_V3.4.0/Libraries/CMSIS/CM3/CoreSupport/core_cm3.c ****  * Removes the exclusive lock which is created by ldrex.
 141:../STM32F10x_StdPeriph_Lib_V3.4.0/Libraries/CMSIS/CM3/CoreSupport/core_cm3.c ****  */
 142:../STM32F10x_StdPeriph_Lib_V3.4.0/Libraries/CMSIS/CM3/CoreSupport/core_cm3.c **** __ASM void __CLREX(void)
 143:../STM32F10x_StdPeriph_Lib_V3.4.0/Libraries/CMSIS/CM3/CoreSupport/core_cm3.c **** {
 144:../STM32F10x_StdPeriph_Lib_V3.4.0/Libraries/CMSIS/CM3/CoreSupport/core_cm3.c ****   clrex
 145:../STM32F10x_StdPeriph_Lib_V3.4.0/Libraries/CMSIS/CM3/CoreSupport/core_cm3.c **** }
 146:../STM32F10x_StdPeriph_Lib_V3.4.0/Libraries/CMSIS/CM3/CoreSupport/core_cm3.c **** 
 147:../STM32F10x_StdPeriph_Lib_V3.4.0/Libraries/CMSIS/CM3/CoreSupport/core_cm3.c **** /**
 148:../STM32F10x_StdPeriph_Lib_V3.4.0/Libraries/CMSIS/CM3/CoreSupport/core_cm3.c ****  * @brief  Return the Base Priority value
 149:../STM32F10x_StdPeriph_Lib_V3.4.0/Libraries/CMSIS/CM3/CoreSupport/core_cm3.c ****  *
 150:../STM32F10x_StdPeriph_Lib_V3.4.0/Libraries/CMSIS/CM3/CoreSupport/core_cm3.c ****  * @return BasePriority
 151:../STM32F10x_StdPeriph_Lib_V3.4.0/Libraries/CMSIS/CM3/CoreSupport/core_cm3.c ****  *
 152:../STM32F10x_StdPeriph_Lib_V3.4.0/Libraries/CMSIS/CM3/CoreSupport/core_cm3.c ****  * Return the content of the base priority register
 153:../STM32F10x_StdPeriph_Lib_V3.4.0/Libraries/CMSIS/CM3/CoreSupport/core_cm3.c ****  */
 154:../STM32F10x_StdPeriph_Lib_V3.4.0/Libraries/CMSIS/CM3/CoreSupport/core_cm3.c **** __ASM uint32_t  __get_BASEPRI(void)
 155:../STM32F10x_StdPeriph_Lib_V3.4.0/Libraries/CMSIS/CM3/CoreSupport/core_cm3.c **** {
 156:../STM32F10x_StdPeriph_Lib_V3.4.0/Libraries/CMSIS/CM3/CoreSupport/core_cm3.c ****   mrs r0, basepri
 157:../STM32F10x_StdPeriph_Lib_V3.4.0/Libraries/CMSIS/CM3/CoreSupport/core_cm3.c ****   bx lr
 158:../STM32F10x_StdPeriph_Lib_V3.4.0/Libraries/CMSIS/CM3/CoreSupport/core_cm3.c **** }
 159:../STM32F10x_StdPeriph_Lib_V3.4.0/Libraries/CMSIS/CM3/CoreSupport/core_cm3.c **** 
 160:../STM32F10x_StdPeriph_Lib_V3.4.0/Libraries/CMSIS/CM3/CoreSupport/core_cm3.c **** /**
 161:../STM32F10x_StdPeriph_Lib_V3.4.0/Libraries/CMSIS/CM3/CoreSupport/core_cm3.c ****  * @brief  Set the Base Priority value
 162:../STM32F10x_StdPeriph_Lib_V3.4.0/Libraries/CMSIS/CM3/CoreSupport/core_cm3.c ****  *
 163:../STM32F10x_StdPeriph_Lib_V3.4.0/Libraries/CMSIS/CM3/CoreSupport/core_cm3.c ****  * @param  basePri  BasePriority
 164:../STM32F10x_StdPeriph_Lib_V3.4.0/Libraries/CMSIS/CM3/CoreSupport/core_cm3.c ****  *
 165:../STM32F10x_StdPeriph_Lib_V3.4.0/Libraries/CMSIS/CM3/CoreSupport/core_cm3.c ****  * Set the base priority register
 166:../STM32F10x_StdPeriph_Lib_V3.4.0/Libraries/CMSIS/CM3/CoreSupport/core_cm3.c ****  */
 167:../STM32F10x_StdPeriph_Lib_V3.4.0/Libraries/CMSIS/CM3/CoreSupport/core_cm3.c **** __ASM void __set_BASEPRI(uint32_t basePri)
 168:../STM32F10x_StdPeriph_Lib_V3.4.0/Libraries/CMSIS/CM3/CoreSupport/core_cm3.c **** {
 169:../STM32F10x_StdPeriph_Lib_V3.4.0/Libraries/CMSIS/CM3/CoreSupport/core_cm3.c ****   msr basepri, r0
 170:../STM32F10x_StdPeriph_Lib_V3.4.0/Libraries/CMSIS/CM3/CoreSupport/core_cm3.c ****   bx lr
 171:../STM32F10x_StdPeriph_Lib_V3.4.0/Libraries/CMSIS/CM3/CoreSupport/core_cm3.c **** }
 172:../STM32F10x_StdPeriph_Lib_V3.4.0/Libraries/CMSIS/CM3/CoreSupport/core_cm3.c **** 
 173:../STM32F10x_StdPeriph_Lib_V3.4.0/Libraries/CMSIS/CM3/CoreSupport/core_cm3.c **** /**
 174:../STM32F10x_StdPeriph_Lib_V3.4.0/Libraries/CMSIS/CM3/CoreSupport/core_cm3.c ****  * @brief  Return the Priority Mask value
 175:../STM32F10x_StdPeriph_Lib_V3.4.0/Libraries/CMSIS/CM3/CoreSupport/core_cm3.c ****  *
 176:../STM32F10x_StdPeriph_Lib_V3.4.0/Libraries/CMSIS/CM3/CoreSupport/core_cm3.c ****  * @return PriMask
 177:../STM32F10x_StdPeriph_Lib_V3.4.0/Libraries/CMSIS/CM3/CoreSupport/core_cm3.c ****  *
 178:../STM32F10x_StdPeriph_Lib_V3.4.0/Libraries/CMSIS/CM3/CoreSupport/core_cm3.c ****  * Return state of the priority mask bit from the priority mask register
 179:../STM32F10x_StdPeriph_Lib_V3.4.0/Libraries/CMSIS/CM3/CoreSupport/core_cm3.c ****  */
 180:../STM32F10x_StdPeriph_Lib_V3.4.0/Libraries/CMSIS/CM3/CoreSupport/core_cm3.c **** __ASM uint32_t __get_PRIMASK(void)
 181:../STM32F10x_StdPeriph_Lib_V3.4.0/Libraries/CMSIS/CM3/CoreSupport/core_cm3.c **** {
 182:../STM32F10x_StdPeriph_Lib_V3.4.0/Libraries/CMSIS/CM3/CoreSupport/core_cm3.c ****   mrs r0, primask
 183:../STM32F10x_StdPeriph_Lib_V3.4.0/Libraries/CMSIS/CM3/CoreSupport/core_cm3.c ****   bx lr
 184:../STM32F10x_StdPeriph_Lib_V3.4.0/Libraries/CMSIS/CM3/CoreSupport/core_cm3.c **** }
 185:../STM32F10x_StdPeriph_Lib_V3.4.0/Libraries/CMSIS/CM3/CoreSupport/core_cm3.c **** 
 186:../STM32F10x_StdPeriph_Lib_V3.4.0/Libraries/CMSIS/CM3/CoreSupport/core_cm3.c **** /**
 187:../STM32F10x_StdPeriph_Lib_V3.4.0/Libraries/CMSIS/CM3/CoreSupport/core_cm3.c ****  * @brief  Set the Priority Mask value
 188:../STM32F10x_StdPeriph_Lib_V3.4.0/Libraries/CMSIS/CM3/CoreSupport/core_cm3.c ****  *
 189:../STM32F10x_StdPeriph_Lib_V3.4.0/Libraries/CMSIS/CM3/CoreSupport/core_cm3.c ****  * @param  priMask  PriMask
 190:../STM32F10x_StdPeriph_Lib_V3.4.0/Libraries/CMSIS/CM3/CoreSupport/core_cm3.c ****  *
 191:../STM32F10x_StdPeriph_Lib_V3.4.0/Libraries/CMSIS/CM3/CoreSupport/core_cm3.c ****  * Set the priority mask bit in the priority mask register
 192:../STM32F10x_StdPeriph_Lib_V3.4.0/Libraries/CMSIS/CM3/CoreSupport/core_cm3.c ****  */
 193:../STM32F10x_StdPeriph_Lib_V3.4.0/Libraries/CMSIS/CM3/CoreSupport/core_cm3.c **** __ASM void __set_PRIMASK(uint32_t priMask)
 194:../STM32F10x_StdPeriph_Lib_V3.4.0/Libraries/CMSIS/CM3/CoreSupport/core_cm3.c **** {
 195:../STM32F10x_StdPeriph_Lib_V3.4.0/Libraries/CMSIS/CM3/CoreSupport/core_cm3.c ****   msr primask, r0
 196:../STM32F10x_StdPeriph_Lib_V3.4.0/Libraries/CMSIS/CM3/CoreSupport/core_cm3.c ****   bx lr
 197:../STM32F10x_StdPeriph_Lib_V3.4.0/Libraries/CMSIS/CM3/CoreSupport/core_cm3.c **** }
 198:../STM32F10x_StdPeriph_Lib_V3.4.0/Libraries/CMSIS/CM3/CoreSupport/core_cm3.c **** 
 199:../STM32F10x_StdPeriph_Lib_V3.4.0/Libraries/CMSIS/CM3/CoreSupport/core_cm3.c **** /**
 200:../STM32F10x_StdPeriph_Lib_V3.4.0/Libraries/CMSIS/CM3/CoreSupport/core_cm3.c ****  * @brief  Return the Fault Mask value
 201:../STM32F10x_StdPeriph_Lib_V3.4.0/Libraries/CMSIS/CM3/CoreSupport/core_cm3.c ****  *
 202:../STM32F10x_StdPeriph_Lib_V3.4.0/Libraries/CMSIS/CM3/CoreSupport/core_cm3.c ****  * @return FaultMask
 203:../STM32F10x_StdPeriph_Lib_V3.4.0/Libraries/CMSIS/CM3/CoreSupport/core_cm3.c ****  *
 204:../STM32F10x_StdPeriph_Lib_V3.4.0/Libraries/CMSIS/CM3/CoreSupport/core_cm3.c ****  * Return the content of the fault mask register
 205:../STM32F10x_StdPeriph_Lib_V3.4.0/Libraries/CMSIS/CM3/CoreSupport/core_cm3.c ****  */
 206:../STM32F10x_StdPeriph_Lib_V3.4.0/Libraries/CMSIS/CM3/CoreSupport/core_cm3.c **** __ASM uint32_t  __get_FAULTMASK(void)
 207:../STM32F10x_StdPeriph_Lib_V3.4.0/Libraries/CMSIS/CM3/CoreSupport/core_cm3.c **** {
 208:../STM32F10x_StdPeriph_Lib_V3.4.0/Libraries/CMSIS/CM3/CoreSupport/core_cm3.c ****   mrs r0, faultmask
 209:../STM32F10x_StdPeriph_Lib_V3.4.0/Libraries/CMSIS/CM3/CoreSupport/core_cm3.c ****   bx lr
 210:../STM32F10x_StdPeriph_Lib_V3.4.0/Libraries/CMSIS/CM3/CoreSupport/core_cm3.c **** }
 211:../STM32F10x_StdPeriph_Lib_V3.4.0/Libraries/CMSIS/CM3/CoreSupport/core_cm3.c **** 
 212:../STM32F10x_StdPeriph_Lib_V3.4.0/Libraries/CMSIS/CM3/CoreSupport/core_cm3.c **** /**
 213:../STM32F10x_StdPeriph_Lib_V3.4.0/Libraries/CMSIS/CM3/CoreSupport/core_cm3.c ****  * @brief  Set the Fault Mask value
 214:../STM32F10x_StdPeriph_Lib_V3.4.0/Libraries/CMSIS/CM3/CoreSupport/core_cm3.c ****  *
 215:../STM32F10x_StdPeriph_Lib_V3.4.0/Libraries/CMSIS/CM3/CoreSupport/core_cm3.c ****  * @param  faultMask  faultMask value
 216:../STM32F10x_StdPeriph_Lib_V3.4.0/Libraries/CMSIS/CM3/CoreSupport/core_cm3.c ****  *
 217:../STM32F10x_StdPeriph_Lib_V3.4.0/Libraries/CMSIS/CM3/CoreSupport/core_cm3.c ****  * Set the fault mask register
 218:../STM32F10x_StdPeriph_Lib_V3.4.0/Libraries/CMSIS/CM3/CoreSupport/core_cm3.c ****  */
 219:../STM32F10x_StdPeriph_Lib_V3.4.0/Libraries/CMSIS/CM3/CoreSupport/core_cm3.c **** __ASM void __set_FAULTMASK(uint32_t faultMask)
 220:../STM32F10x_StdPeriph_Lib_V3.4.0/Libraries/CMSIS/CM3/CoreSupport/core_cm3.c **** {
 221:../STM32F10x_StdPeriph_Lib_V3.4.0/Libraries/CMSIS/CM3/CoreSupport/core_cm3.c ****   msr faultmask, r0
 222:../STM32F10x_StdPeriph_Lib_V3.4.0/Libraries/CMSIS/CM3/CoreSupport/core_cm3.c ****   bx lr
 223:../STM32F10x_StdPeriph_Lib_V3.4.0/Libraries/CMSIS/CM3/CoreSupport/core_cm3.c **** }
 224:../STM32F10x_StdPeriph_Lib_V3.4.0/Libraries/CMSIS/CM3/CoreSupport/core_cm3.c **** 
 225:../STM32F10x_StdPeriph_Lib_V3.4.0/Libraries/CMSIS/CM3/CoreSupport/core_cm3.c **** /**
 226:../STM32F10x_StdPeriph_Lib_V3.4.0/Libraries/CMSIS/CM3/CoreSupport/core_cm3.c ****  * @brief  Return the Control Register value
 227:../STM32F10x_StdPeriph_Lib_V3.4.0/Libraries/CMSIS/CM3/CoreSupport/core_cm3.c ****  * 
 228:../STM32F10x_StdPeriph_Lib_V3.4.0/Libraries/CMSIS/CM3/CoreSupport/core_cm3.c ****  * @return Control value
 229:../STM32F10x_StdPeriph_Lib_V3.4.0/Libraries/CMSIS/CM3/CoreSupport/core_cm3.c ****  *
 230:../STM32F10x_StdPeriph_Lib_V3.4.0/Libraries/CMSIS/CM3/CoreSupport/core_cm3.c ****  * Return the content of the control register
 231:../STM32F10x_StdPeriph_Lib_V3.4.0/Libraries/CMSIS/CM3/CoreSupport/core_cm3.c ****  */
 232:../STM32F10x_StdPeriph_Lib_V3.4.0/Libraries/CMSIS/CM3/CoreSupport/core_cm3.c **** __ASM uint32_t __get_CONTROL(void)
 233:../STM32F10x_StdPeriph_Lib_V3.4.0/Libraries/CMSIS/CM3/CoreSupport/core_cm3.c **** {
 234:../STM32F10x_StdPeriph_Lib_V3.4.0/Libraries/CMSIS/CM3/CoreSupport/core_cm3.c ****   mrs r0, control
 235:../STM32F10x_StdPeriph_Lib_V3.4.0/Libraries/CMSIS/CM3/CoreSupport/core_cm3.c ****   bx lr
 236:../STM32F10x_StdPeriph_Lib_V3.4.0/Libraries/CMSIS/CM3/CoreSupport/core_cm3.c **** }
 237:../STM32F10x_StdPeriph_Lib_V3.4.0/Libraries/CMSIS/CM3/CoreSupport/core_cm3.c **** 
 238:../STM32F10x_StdPeriph_Lib_V3.4.0/Libraries/CMSIS/CM3/CoreSupport/core_cm3.c **** /**
 239:../STM32F10x_StdPeriph_Lib_V3.4.0/Libraries/CMSIS/CM3/CoreSupport/core_cm3.c ****  * @brief  Set the Control Register value
 240:../STM32F10x_StdPeriph_Lib_V3.4.0/Libraries/CMSIS/CM3/CoreSupport/core_cm3.c ****  *
 241:../STM32F10x_StdPeriph_Lib_V3.4.0/Libraries/CMSIS/CM3/CoreSupport/core_cm3.c ****  * @param  control  Control value
 242:../STM32F10x_StdPeriph_Lib_V3.4.0/Libraries/CMSIS/CM3/CoreSupport/core_cm3.c ****  *
 243:../STM32F10x_StdPeriph_Lib_V3.4.0/Libraries/CMSIS/CM3/CoreSupport/core_cm3.c ****  * Set the control register
 244:../STM32F10x_StdPeriph_Lib_V3.4.0/Libraries/CMSIS/CM3/CoreSupport/core_cm3.c ****  */
 245:../STM32F10x_StdPeriph_Lib_V3.4.0/Libraries/CMSIS/CM3/CoreSupport/core_cm3.c **** __ASM void __set_CONTROL(uint32_t control)
 246:../STM32F10x_StdPeriph_Lib_V3.4.0/Libraries/CMSIS/CM3/CoreSupport/core_cm3.c **** {
 247:../STM32F10x_StdPeriph_Lib_V3.4.0/Libraries/CMSIS/CM3/CoreSupport/core_cm3.c ****   msr control, r0
 248:../STM32F10x_StdPeriph_Lib_V3.4.0/Libraries/CMSIS/CM3/CoreSupport/core_cm3.c ****   bx lr
 249:../STM32F10x_StdPeriph_Lib_V3.4.0/Libraries/CMSIS/CM3/CoreSupport/core_cm3.c **** }
 250:../STM32F10x_StdPeriph_Lib_V3.4.0/Libraries/CMSIS/CM3/CoreSupport/core_cm3.c **** 
 251:../STM32F10x_StdPeriph_Lib_V3.4.0/Libraries/CMSIS/CM3/CoreSupport/core_cm3.c **** #endif /* __ARMCC_VERSION  */ 
 252:../STM32F10x_StdPeriph_Lib_V3.4.0/Libraries/CMSIS/CM3/CoreSupport/core_cm3.c **** 
 253:../STM32F10x_StdPeriph_Lib_V3.4.0/Libraries/CMSIS/CM3/CoreSupport/core_cm3.c **** 
 254:../STM32F10x_StdPeriph_Lib_V3.4.0/Libraries/CMSIS/CM3/CoreSupport/core_cm3.c **** 
 255:../STM32F10x_StdPeriph_Lib_V3.4.0/Libraries/CMSIS/CM3/CoreSupport/core_cm3.c **** #elif (defined (__ICCARM__)) /*------------------ ICC Compiler -------------------*/
 256:../STM32F10x_StdPeriph_Lib_V3.4.0/Libraries/CMSIS/CM3/CoreSupport/core_cm3.c **** /* IAR iccarm specific functions */
 257:../STM32F10x_StdPeriph_Lib_V3.4.0/Libraries/CMSIS/CM3/CoreSupport/core_cm3.c **** #pragma diag_suppress=Pe940
 258:../STM32F10x_StdPeriph_Lib_V3.4.0/Libraries/CMSIS/CM3/CoreSupport/core_cm3.c **** 
 259:../STM32F10x_StdPeriph_Lib_V3.4.0/Libraries/CMSIS/CM3/CoreSupport/core_cm3.c **** /**
 260:../STM32F10x_StdPeriph_Lib_V3.4.0/Libraries/CMSIS/CM3/CoreSupport/core_cm3.c ****  * @brief  Return the Process Stack Pointer
 261:../STM32F10x_StdPeriph_Lib_V3.4.0/Libraries/CMSIS/CM3/CoreSupport/core_cm3.c ****  *
 262:../STM32F10x_StdPeriph_Lib_V3.4.0/Libraries/CMSIS/CM3/CoreSupport/core_cm3.c ****  * @return ProcessStackPointer
 263:../STM32F10x_StdPeriph_Lib_V3.4.0/Libraries/CMSIS/CM3/CoreSupport/core_cm3.c ****  *
 264:../STM32F10x_StdPeriph_Lib_V3.4.0/Libraries/CMSIS/CM3/CoreSupport/core_cm3.c ****  * Return the actual process stack pointer
 265:../STM32F10x_StdPeriph_Lib_V3.4.0/Libraries/CMSIS/CM3/CoreSupport/core_cm3.c ****  */
 266:../STM32F10x_StdPeriph_Lib_V3.4.0/Libraries/CMSIS/CM3/CoreSupport/core_cm3.c **** uint32_t __get_PSP(void)
 267:../STM32F10x_StdPeriph_Lib_V3.4.0/Libraries/CMSIS/CM3/CoreSupport/core_cm3.c **** {
 268:../STM32F10x_StdPeriph_Lib_V3.4.0/Libraries/CMSIS/CM3/CoreSupport/core_cm3.c ****   __ASM("mrs r0, psp");
 269:../STM32F10x_StdPeriph_Lib_V3.4.0/Libraries/CMSIS/CM3/CoreSupport/core_cm3.c ****   __ASM("bx lr");
 270:../STM32F10x_StdPeriph_Lib_V3.4.0/Libraries/CMSIS/CM3/CoreSupport/core_cm3.c **** }
 271:../STM32F10x_StdPeriph_Lib_V3.4.0/Libraries/CMSIS/CM3/CoreSupport/core_cm3.c **** 
 272:../STM32F10x_StdPeriph_Lib_V3.4.0/Libraries/CMSIS/CM3/CoreSupport/core_cm3.c **** /**
 273:../STM32F10x_StdPeriph_Lib_V3.4.0/Libraries/CMSIS/CM3/CoreSupport/core_cm3.c ****  * @brief  Set the Process Stack Pointer
 274:../STM32F10x_StdPeriph_Lib_V3.4.0/Libraries/CMSIS/CM3/CoreSupport/core_cm3.c ****  *
 275:../STM32F10x_StdPeriph_Lib_V3.4.0/Libraries/CMSIS/CM3/CoreSupport/core_cm3.c ****  * @param  topOfProcStack  Process Stack Pointer
 276:../STM32F10x_StdPeriph_Lib_V3.4.0/Libraries/CMSIS/CM3/CoreSupport/core_cm3.c ****  *
 277:../STM32F10x_StdPeriph_Lib_V3.4.0/Libraries/CMSIS/CM3/CoreSupport/core_cm3.c ****  * Assign the value ProcessStackPointer to the MSP 
 278:../STM32F10x_StdPeriph_Lib_V3.4.0/Libraries/CMSIS/CM3/CoreSupport/core_cm3.c ****  * (process stack pointer) Cortex processor register
 279:../STM32F10x_StdPeriph_Lib_V3.4.0/Libraries/CMSIS/CM3/CoreSupport/core_cm3.c ****  */
 280:../STM32F10x_StdPeriph_Lib_V3.4.0/Libraries/CMSIS/CM3/CoreSupport/core_cm3.c **** void __set_PSP(uint32_t topOfProcStack)
 281:../STM32F10x_StdPeriph_Lib_V3.4.0/Libraries/CMSIS/CM3/CoreSupport/core_cm3.c **** {
 282:../STM32F10x_StdPeriph_Lib_V3.4.0/Libraries/CMSIS/CM3/CoreSupport/core_cm3.c ****   __ASM("msr psp, r0");
 283:../STM32F10x_StdPeriph_Lib_V3.4.0/Libraries/CMSIS/CM3/CoreSupport/core_cm3.c ****   __ASM("bx lr");
 284:../STM32F10x_StdPeriph_Lib_V3.4.0/Libraries/CMSIS/CM3/CoreSupport/core_cm3.c **** }
 285:../STM32F10x_StdPeriph_Lib_V3.4.0/Libraries/CMSIS/CM3/CoreSupport/core_cm3.c **** 
 286:../STM32F10x_StdPeriph_Lib_V3.4.0/Libraries/CMSIS/CM3/CoreSupport/core_cm3.c **** /**
 287:../STM32F10x_StdPeriph_Lib_V3.4.0/Libraries/CMSIS/CM3/CoreSupport/core_cm3.c ****  * @brief  Return the Main Stack Pointer
 288:../STM32F10x_StdPeriph_Lib_V3.4.0/Libraries/CMSIS/CM3/CoreSupport/core_cm3.c ****  *
 289:../STM32F10x_StdPeriph_Lib_V3.4.0/Libraries/CMSIS/CM3/CoreSupport/core_cm3.c ****  * @return Main Stack Pointer
 290:../STM32F10x_StdPeriph_Lib_V3.4.0/Libraries/CMSIS/CM3/CoreSupport/core_cm3.c ****  *
 291:../STM32F10x_StdPeriph_Lib_V3.4.0/Libraries/CMSIS/CM3/CoreSupport/core_cm3.c ****  * Return the current value of the MSP (main stack pointer)
 292:../STM32F10x_StdPeriph_Lib_V3.4.0/Libraries/CMSIS/CM3/CoreSupport/core_cm3.c ****  * Cortex processor register
 293:../STM32F10x_StdPeriph_Lib_V3.4.0/Libraries/CMSIS/CM3/CoreSupport/core_cm3.c ****  */
 294:../STM32F10x_StdPeriph_Lib_V3.4.0/Libraries/CMSIS/CM3/CoreSupport/core_cm3.c **** uint32_t __get_MSP(void)
 295:../STM32F10x_StdPeriph_Lib_V3.4.0/Libraries/CMSIS/CM3/CoreSupport/core_cm3.c **** {
 296:../STM32F10x_StdPeriph_Lib_V3.4.0/Libraries/CMSIS/CM3/CoreSupport/core_cm3.c ****   __ASM("mrs r0, msp");
 297:../STM32F10x_StdPeriph_Lib_V3.4.0/Libraries/CMSIS/CM3/CoreSupport/core_cm3.c ****   __ASM("bx lr");
 298:../STM32F10x_StdPeriph_Lib_V3.4.0/Libraries/CMSIS/CM3/CoreSupport/core_cm3.c **** }
 299:../STM32F10x_StdPeriph_Lib_V3.4.0/Libraries/CMSIS/CM3/CoreSupport/core_cm3.c **** 
 300:../STM32F10x_StdPeriph_Lib_V3.4.0/Libraries/CMSIS/CM3/CoreSupport/core_cm3.c **** /**
 301:../STM32F10x_StdPeriph_Lib_V3.4.0/Libraries/CMSIS/CM3/CoreSupport/core_cm3.c ****  * @brief  Set the Main Stack Pointer
 302:../STM32F10x_StdPeriph_Lib_V3.4.0/Libraries/CMSIS/CM3/CoreSupport/core_cm3.c ****  *
 303:../STM32F10x_StdPeriph_Lib_V3.4.0/Libraries/CMSIS/CM3/CoreSupport/core_cm3.c ****  * @param  topOfMainStack  Main Stack Pointer
 304:../STM32F10x_StdPeriph_Lib_V3.4.0/Libraries/CMSIS/CM3/CoreSupport/core_cm3.c ****  *
 305:../STM32F10x_StdPeriph_Lib_V3.4.0/Libraries/CMSIS/CM3/CoreSupport/core_cm3.c ****  * Assign the value mainStackPointer to the MSP 
 306:../STM32F10x_StdPeriph_Lib_V3.4.0/Libraries/CMSIS/CM3/CoreSupport/core_cm3.c ****  * (main stack pointer) Cortex processor register
 307:../STM32F10x_StdPeriph_Lib_V3.4.0/Libraries/CMSIS/CM3/CoreSupport/core_cm3.c ****  */
 308:../STM32F10x_StdPeriph_Lib_V3.4.0/Libraries/CMSIS/CM3/CoreSupport/core_cm3.c **** void __set_MSP(uint32_t topOfMainStack)
 309:../STM32F10x_StdPeriph_Lib_V3.4.0/Libraries/CMSIS/CM3/CoreSupport/core_cm3.c **** {
 310:../STM32F10x_StdPeriph_Lib_V3.4.0/Libraries/CMSIS/CM3/CoreSupport/core_cm3.c ****   __ASM("msr msp, r0");
 311:../STM32F10x_StdPeriph_Lib_V3.4.0/Libraries/CMSIS/CM3/CoreSupport/core_cm3.c ****   __ASM("bx lr");
 312:../STM32F10x_StdPeriph_Lib_V3.4.0/Libraries/CMSIS/CM3/CoreSupport/core_cm3.c **** }
 313:../STM32F10x_StdPeriph_Lib_V3.4.0/Libraries/CMSIS/CM3/CoreSupport/core_cm3.c **** 
 314:../STM32F10x_StdPeriph_Lib_V3.4.0/Libraries/CMSIS/CM3/CoreSupport/core_cm3.c **** /**
 315:../STM32F10x_StdPeriph_Lib_V3.4.0/Libraries/CMSIS/CM3/CoreSupport/core_cm3.c ****  * @brief  Reverse byte order in unsigned short value
 316:../STM32F10x_StdPeriph_Lib_V3.4.0/Libraries/CMSIS/CM3/CoreSupport/core_cm3.c ****  *
 317:../STM32F10x_StdPeriph_Lib_V3.4.0/Libraries/CMSIS/CM3/CoreSupport/core_cm3.c ****  * @param  value  value to reverse
 318:../STM32F10x_StdPeriph_Lib_V3.4.0/Libraries/CMSIS/CM3/CoreSupport/core_cm3.c ****  * @return        reversed value
 319:../STM32F10x_StdPeriph_Lib_V3.4.0/Libraries/CMSIS/CM3/CoreSupport/core_cm3.c ****  *
 320:../STM32F10x_StdPeriph_Lib_V3.4.0/Libraries/CMSIS/CM3/CoreSupport/core_cm3.c ****  * Reverse byte order in unsigned short value
 321:../STM32F10x_StdPeriph_Lib_V3.4.0/Libraries/CMSIS/CM3/CoreSupport/core_cm3.c ****  */
 322:../STM32F10x_StdPeriph_Lib_V3.4.0/Libraries/CMSIS/CM3/CoreSupport/core_cm3.c **** uint32_t __REV16(uint16_t value)
 323:../STM32F10x_StdPeriph_Lib_V3.4.0/Libraries/CMSIS/CM3/CoreSupport/core_cm3.c **** {
 324:../STM32F10x_StdPeriph_Lib_V3.4.0/Libraries/CMSIS/CM3/CoreSupport/core_cm3.c ****   __ASM("rev16 r0, r0");
 325:../STM32F10x_StdPeriph_Lib_V3.4.0/Libraries/CMSIS/CM3/CoreSupport/core_cm3.c ****   __ASM("bx lr");
 326:../STM32F10x_StdPeriph_Lib_V3.4.0/Libraries/CMSIS/CM3/CoreSupport/core_cm3.c **** }
 327:../STM32F10x_StdPeriph_Lib_V3.4.0/Libraries/CMSIS/CM3/CoreSupport/core_cm3.c **** 
 328:../STM32F10x_StdPeriph_Lib_V3.4.0/Libraries/CMSIS/CM3/CoreSupport/core_cm3.c **** /**
 329:../STM32F10x_StdPeriph_Lib_V3.4.0/Libraries/CMSIS/CM3/CoreSupport/core_cm3.c ****  * @brief  Reverse bit order of value
 330:../STM32F10x_StdPeriph_Lib_V3.4.0/Libraries/CMSIS/CM3/CoreSupport/core_cm3.c ****  *
 331:../STM32F10x_StdPeriph_Lib_V3.4.0/Libraries/CMSIS/CM3/CoreSupport/core_cm3.c ****  * @param  value  value to reverse
 332:../STM32F10x_StdPeriph_Lib_V3.4.0/Libraries/CMSIS/CM3/CoreSupport/core_cm3.c ****  * @return        reversed value
 333:../STM32F10x_StdPeriph_Lib_V3.4.0/Libraries/CMSIS/CM3/CoreSupport/core_cm3.c ****  *
 334:../STM32F10x_StdPeriph_Lib_V3.4.0/Libraries/CMSIS/CM3/CoreSupport/core_cm3.c ****  * Reverse bit order of value
 335:../STM32F10x_StdPeriph_Lib_V3.4.0/Libraries/CMSIS/CM3/CoreSupport/core_cm3.c ****  */
 336:../STM32F10x_StdPeriph_Lib_V3.4.0/Libraries/CMSIS/CM3/CoreSupport/core_cm3.c **** uint32_t __RBIT(uint32_t value)
 337:../STM32F10x_StdPeriph_Lib_V3.4.0/Libraries/CMSIS/CM3/CoreSupport/core_cm3.c **** {
 338:../STM32F10x_StdPeriph_Lib_V3.4.0/Libraries/CMSIS/CM3/CoreSupport/core_cm3.c ****   __ASM("rbit r0, r0");
 339:../STM32F10x_StdPeriph_Lib_V3.4.0/Libraries/CMSIS/CM3/CoreSupport/core_cm3.c ****   __ASM("bx lr");
 340:../STM32F10x_StdPeriph_Lib_V3.4.0/Libraries/CMSIS/CM3/CoreSupport/core_cm3.c **** }
 341:../STM32F10x_StdPeriph_Lib_V3.4.0/Libraries/CMSIS/CM3/CoreSupport/core_cm3.c **** 
 342:../STM32F10x_StdPeriph_Lib_V3.4.0/Libraries/CMSIS/CM3/CoreSupport/core_cm3.c **** /**
 343:../STM32F10x_StdPeriph_Lib_V3.4.0/Libraries/CMSIS/CM3/CoreSupport/core_cm3.c ****  * @brief  LDR Exclusive (8 bit)
 344:../STM32F10x_StdPeriph_Lib_V3.4.0/Libraries/CMSIS/CM3/CoreSupport/core_cm3.c ****  *
 345:../STM32F10x_StdPeriph_Lib_V3.4.0/Libraries/CMSIS/CM3/CoreSupport/core_cm3.c ****  * @param  *addr  address pointer
 346:../STM32F10x_StdPeriph_Lib_V3.4.0/Libraries/CMSIS/CM3/CoreSupport/core_cm3.c ****  * @return        value of (*address)
 347:../STM32F10x_StdPeriph_Lib_V3.4.0/Libraries/CMSIS/CM3/CoreSupport/core_cm3.c ****  *
 348:../STM32F10x_StdPeriph_Lib_V3.4.0/Libraries/CMSIS/CM3/CoreSupport/core_cm3.c ****  * Exclusive LDR command for 8 bit values)
 349:../STM32F10x_StdPeriph_Lib_V3.4.0/Libraries/CMSIS/CM3/CoreSupport/core_cm3.c ****  */
 350:../STM32F10x_StdPeriph_Lib_V3.4.0/Libraries/CMSIS/CM3/CoreSupport/core_cm3.c **** uint8_t __LDREXB(uint8_t *addr)
 351:../STM32F10x_StdPeriph_Lib_V3.4.0/Libraries/CMSIS/CM3/CoreSupport/core_cm3.c **** {
 352:../STM32F10x_StdPeriph_Lib_V3.4.0/Libraries/CMSIS/CM3/CoreSupport/core_cm3.c ****   __ASM("ldrexb r0, [r0]");
 353:../STM32F10x_StdPeriph_Lib_V3.4.0/Libraries/CMSIS/CM3/CoreSupport/core_cm3.c ****   __ASM("bx lr"); 
 354:../STM32F10x_StdPeriph_Lib_V3.4.0/Libraries/CMSIS/CM3/CoreSupport/core_cm3.c **** }
 355:../STM32F10x_StdPeriph_Lib_V3.4.0/Libraries/CMSIS/CM3/CoreSupport/core_cm3.c **** 
 356:../STM32F10x_StdPeriph_Lib_V3.4.0/Libraries/CMSIS/CM3/CoreSupport/core_cm3.c **** /**
 357:../STM32F10x_StdPeriph_Lib_V3.4.0/Libraries/CMSIS/CM3/CoreSupport/core_cm3.c ****  * @brief  LDR Exclusive (16 bit)
 358:../STM32F10x_StdPeriph_Lib_V3.4.0/Libraries/CMSIS/CM3/CoreSupport/core_cm3.c ****  *
 359:../STM32F10x_StdPeriph_Lib_V3.4.0/Libraries/CMSIS/CM3/CoreSupport/core_cm3.c ****  * @param  *addr  address pointer
 360:../STM32F10x_StdPeriph_Lib_V3.4.0/Libraries/CMSIS/CM3/CoreSupport/core_cm3.c ****  * @return        value of (*address)
 361:../STM32F10x_StdPeriph_Lib_V3.4.0/Libraries/CMSIS/CM3/CoreSupport/core_cm3.c ****  *
 362:../STM32F10x_StdPeriph_Lib_V3.4.0/Libraries/CMSIS/CM3/CoreSupport/core_cm3.c ****  * Exclusive LDR command for 16 bit values
 363:../STM32F10x_StdPeriph_Lib_V3.4.0/Libraries/CMSIS/CM3/CoreSupport/core_cm3.c ****  */
 364:../STM32F10x_StdPeriph_Lib_V3.4.0/Libraries/CMSIS/CM3/CoreSupport/core_cm3.c **** uint16_t __LDREXH(uint16_t *addr)
 365:../STM32F10x_StdPeriph_Lib_V3.4.0/Libraries/CMSIS/CM3/CoreSupport/core_cm3.c **** {
 366:../STM32F10x_StdPeriph_Lib_V3.4.0/Libraries/CMSIS/CM3/CoreSupport/core_cm3.c ****   __ASM("ldrexh r0, [r0]");
 367:../STM32F10x_StdPeriph_Lib_V3.4.0/Libraries/CMSIS/CM3/CoreSupport/core_cm3.c ****   __ASM("bx lr");
 368:../STM32F10x_StdPeriph_Lib_V3.4.0/Libraries/CMSIS/CM3/CoreSupport/core_cm3.c **** }
 369:../STM32F10x_StdPeriph_Lib_V3.4.0/Libraries/CMSIS/CM3/CoreSupport/core_cm3.c **** 
 370:../STM32F10x_StdPeriph_Lib_V3.4.0/Libraries/CMSIS/CM3/CoreSupport/core_cm3.c **** /**
 371:../STM32F10x_StdPeriph_Lib_V3.4.0/Libraries/CMSIS/CM3/CoreSupport/core_cm3.c ****  * @brief  LDR Exclusive (32 bit)
 372:../STM32F10x_StdPeriph_Lib_V3.4.0/Libraries/CMSIS/CM3/CoreSupport/core_cm3.c ****  *
 373:../STM32F10x_StdPeriph_Lib_V3.4.0/Libraries/CMSIS/CM3/CoreSupport/core_cm3.c ****  * @param  *addr  address pointer
 374:../STM32F10x_StdPeriph_Lib_V3.4.0/Libraries/CMSIS/CM3/CoreSupport/core_cm3.c ****  * @return        value of (*address)
 375:../STM32F10x_StdPeriph_Lib_V3.4.0/Libraries/CMSIS/CM3/CoreSupport/core_cm3.c ****  *
 376:../STM32F10x_StdPeriph_Lib_V3.4.0/Libraries/CMSIS/CM3/CoreSupport/core_cm3.c ****  * Exclusive LDR command for 32 bit values
 377:../STM32F10x_StdPeriph_Lib_V3.4.0/Libraries/CMSIS/CM3/CoreSupport/core_cm3.c ****  */
 378:../STM32F10x_StdPeriph_Lib_V3.4.0/Libraries/CMSIS/CM3/CoreSupport/core_cm3.c **** uint32_t __LDREXW(uint32_t *addr)
 379:../STM32F10x_StdPeriph_Lib_V3.4.0/Libraries/CMSIS/CM3/CoreSupport/core_cm3.c **** {
 380:../STM32F10x_StdPeriph_Lib_V3.4.0/Libraries/CMSIS/CM3/CoreSupport/core_cm3.c ****   __ASM("ldrex r0, [r0]");
 381:../STM32F10x_StdPeriph_Lib_V3.4.0/Libraries/CMSIS/CM3/CoreSupport/core_cm3.c ****   __ASM("bx lr");
 382:../STM32F10x_StdPeriph_Lib_V3.4.0/Libraries/CMSIS/CM3/CoreSupport/core_cm3.c **** }
 383:../STM32F10x_StdPeriph_Lib_V3.4.0/Libraries/CMSIS/CM3/CoreSupport/core_cm3.c **** 
 384:../STM32F10x_StdPeriph_Lib_V3.4.0/Libraries/CMSIS/CM3/CoreSupport/core_cm3.c **** /**
 385:../STM32F10x_StdPeriph_Lib_V3.4.0/Libraries/CMSIS/CM3/CoreSupport/core_cm3.c ****  * @brief  STR Exclusive (8 bit)
 386:../STM32F10x_StdPeriph_Lib_V3.4.0/Libraries/CMSIS/CM3/CoreSupport/core_cm3.c ****  *
 387:../STM32F10x_StdPeriph_Lib_V3.4.0/Libraries/CMSIS/CM3/CoreSupport/core_cm3.c ****  * @param  value  value to store
 388:../STM32F10x_StdPeriph_Lib_V3.4.0/Libraries/CMSIS/CM3/CoreSupport/core_cm3.c ****  * @param  *addr  address pointer
 389:../STM32F10x_StdPeriph_Lib_V3.4.0/Libraries/CMSIS/CM3/CoreSupport/core_cm3.c ****  * @return        successful / failed
 390:../STM32F10x_StdPeriph_Lib_V3.4.0/Libraries/CMSIS/CM3/CoreSupport/core_cm3.c ****  *
 391:../STM32F10x_StdPeriph_Lib_V3.4.0/Libraries/CMSIS/CM3/CoreSupport/core_cm3.c ****  * Exclusive STR command for 8 bit values
 392:../STM32F10x_StdPeriph_Lib_V3.4.0/Libraries/CMSIS/CM3/CoreSupport/core_cm3.c ****  */
 393:../STM32F10x_StdPeriph_Lib_V3.4.0/Libraries/CMSIS/CM3/CoreSupport/core_cm3.c **** uint32_t __STREXB(uint8_t value, uint8_t *addr)
 394:../STM32F10x_StdPeriph_Lib_V3.4.0/Libraries/CMSIS/CM3/CoreSupport/core_cm3.c **** {
 395:../STM32F10x_StdPeriph_Lib_V3.4.0/Libraries/CMSIS/CM3/CoreSupport/core_cm3.c ****   __ASM("strexb r0, r0, [r1]");
 396:../STM32F10x_StdPeriph_Lib_V3.4.0/Libraries/CMSIS/CM3/CoreSupport/core_cm3.c ****   __ASM("bx lr");
 397:../STM32F10x_StdPeriph_Lib_V3.4.0/Libraries/CMSIS/CM3/CoreSupport/core_cm3.c **** }
 398:../STM32F10x_StdPeriph_Lib_V3.4.0/Libraries/CMSIS/CM3/CoreSupport/core_cm3.c **** 
 399:../STM32F10x_StdPeriph_Lib_V3.4.0/Libraries/CMSIS/CM3/CoreSupport/core_cm3.c **** /**
 400:../STM32F10x_StdPeriph_Lib_V3.4.0/Libraries/CMSIS/CM3/CoreSupport/core_cm3.c ****  * @brief  STR Exclusive (16 bit)
 401:../STM32F10x_StdPeriph_Lib_V3.4.0/Libraries/CMSIS/CM3/CoreSupport/core_cm3.c ****  *
 402:../STM32F10x_StdPeriph_Lib_V3.4.0/Libraries/CMSIS/CM3/CoreSupport/core_cm3.c ****  * @param  value  value to store
 403:../STM32F10x_StdPeriph_Lib_V3.4.0/Libraries/CMSIS/CM3/CoreSupport/core_cm3.c ****  * @param  *addr  address pointer
 404:../STM32F10x_StdPeriph_Lib_V3.4.0/Libraries/CMSIS/CM3/CoreSupport/core_cm3.c ****  * @return        successful / failed
 405:../STM32F10x_StdPeriph_Lib_V3.4.0/Libraries/CMSIS/CM3/CoreSupport/core_cm3.c ****  *
 406:../STM32F10x_StdPeriph_Lib_V3.4.0/Libraries/CMSIS/CM3/CoreSupport/core_cm3.c ****  * Exclusive STR command for 16 bit values
 407:../STM32F10x_StdPeriph_Lib_V3.4.0/Libraries/CMSIS/CM3/CoreSupport/core_cm3.c ****  */
 408:../STM32F10x_StdPeriph_Lib_V3.4.0/Libraries/CMSIS/CM3/CoreSupport/core_cm3.c **** uint32_t __STREXH(uint16_t value, uint16_t *addr)
 409:../STM32F10x_StdPeriph_Lib_V3.4.0/Libraries/CMSIS/CM3/CoreSupport/core_cm3.c **** {
 410:../STM32F10x_StdPeriph_Lib_V3.4.0/Libraries/CMSIS/CM3/CoreSupport/core_cm3.c ****   __ASM("strexh r0, r0, [r1]");
 411:../STM32F10x_StdPeriph_Lib_V3.4.0/Libraries/CMSIS/CM3/CoreSupport/core_cm3.c ****   __ASM("bx lr");
 412:../STM32F10x_StdPeriph_Lib_V3.4.0/Libraries/CMSIS/CM3/CoreSupport/core_cm3.c **** }
 413:../STM32F10x_StdPeriph_Lib_V3.4.0/Libraries/CMSIS/CM3/CoreSupport/core_cm3.c **** 
 414:../STM32F10x_StdPeriph_Lib_V3.4.0/Libraries/CMSIS/CM3/CoreSupport/core_cm3.c **** /**
 415:../STM32F10x_StdPeriph_Lib_V3.4.0/Libraries/CMSIS/CM3/CoreSupport/core_cm3.c ****  * @brief  STR Exclusive (32 bit)
 416:../STM32F10x_StdPeriph_Lib_V3.4.0/Libraries/CMSIS/CM3/CoreSupport/core_cm3.c ****  *
 417:../STM32F10x_StdPeriph_Lib_V3.4.0/Libraries/CMSIS/CM3/CoreSupport/core_cm3.c ****  * @param  value  value to store
 418:../STM32F10x_StdPeriph_Lib_V3.4.0/Libraries/CMSIS/CM3/CoreSupport/core_cm3.c ****  * @param  *addr  address pointer
 419:../STM32F10x_StdPeriph_Lib_V3.4.0/Libraries/CMSIS/CM3/CoreSupport/core_cm3.c ****  * @return        successful / failed
 420:../STM32F10x_StdPeriph_Lib_V3.4.0/Libraries/CMSIS/CM3/CoreSupport/core_cm3.c ****  *
 421:../STM32F10x_StdPeriph_Lib_V3.4.0/Libraries/CMSIS/CM3/CoreSupport/core_cm3.c ****  * Exclusive STR command for 32 bit values
 422:../STM32F10x_StdPeriph_Lib_V3.4.0/Libraries/CMSIS/CM3/CoreSupport/core_cm3.c ****  */
 423:../STM32F10x_StdPeriph_Lib_V3.4.0/Libraries/CMSIS/CM3/CoreSupport/core_cm3.c **** uint32_t __STREXW(uint32_t value, uint32_t *addr)
 424:../STM32F10x_StdPeriph_Lib_V3.4.0/Libraries/CMSIS/CM3/CoreSupport/core_cm3.c **** {
 425:../STM32F10x_StdPeriph_Lib_V3.4.0/Libraries/CMSIS/CM3/CoreSupport/core_cm3.c ****   __ASM("strex r0, r0, [r1]");
 426:../STM32F10x_StdPeriph_Lib_V3.4.0/Libraries/CMSIS/CM3/CoreSupport/core_cm3.c ****   __ASM("bx lr");
 427:../STM32F10x_StdPeriph_Lib_V3.4.0/Libraries/CMSIS/CM3/CoreSupport/core_cm3.c **** }
 428:../STM32F10x_StdPeriph_Lib_V3.4.0/Libraries/CMSIS/CM3/CoreSupport/core_cm3.c **** 
 429:../STM32F10x_StdPeriph_Lib_V3.4.0/Libraries/CMSIS/CM3/CoreSupport/core_cm3.c **** #pragma diag_default=Pe940
 430:../STM32F10x_StdPeriph_Lib_V3.4.0/Libraries/CMSIS/CM3/CoreSupport/core_cm3.c **** 
 431:../STM32F10x_StdPeriph_Lib_V3.4.0/Libraries/CMSIS/CM3/CoreSupport/core_cm3.c **** 
 432:../STM32F10x_StdPeriph_Lib_V3.4.0/Libraries/CMSIS/CM3/CoreSupport/core_cm3.c **** #elif (defined (__GNUC__)) /*------------------ GNU Compiler ---------------------*/
 433:../STM32F10x_StdPeriph_Lib_V3.4.0/Libraries/CMSIS/CM3/CoreSupport/core_cm3.c **** /* GNU gcc specific functions */
 434:../STM32F10x_StdPeriph_Lib_V3.4.0/Libraries/CMSIS/CM3/CoreSupport/core_cm3.c **** 
 435:../STM32F10x_StdPeriph_Lib_V3.4.0/Libraries/CMSIS/CM3/CoreSupport/core_cm3.c **** /**
 436:../STM32F10x_StdPeriph_Lib_V3.4.0/Libraries/CMSIS/CM3/CoreSupport/core_cm3.c ****  * @brief  Return the Process Stack Pointer
 437:../STM32F10x_StdPeriph_Lib_V3.4.0/Libraries/CMSIS/CM3/CoreSupport/core_cm3.c ****  *
 438:../STM32F10x_StdPeriph_Lib_V3.4.0/Libraries/CMSIS/CM3/CoreSupport/core_cm3.c ****  * @return ProcessStackPointer
 439:../STM32F10x_StdPeriph_Lib_V3.4.0/Libraries/CMSIS/CM3/CoreSupport/core_cm3.c ****  *
 440:../STM32F10x_StdPeriph_Lib_V3.4.0/Libraries/CMSIS/CM3/CoreSupport/core_cm3.c ****  * Return the actual process stack pointer
 441:../STM32F10x_StdPeriph_Lib_V3.4.0/Libraries/CMSIS/CM3/CoreSupport/core_cm3.c ****  */
 442:../STM32F10x_StdPeriph_Lib_V3.4.0/Libraries/CMSIS/CM3/CoreSupport/core_cm3.c **** uint32_t __get_PSP(void) __attribute__( ( naked ) );
 443:../STM32F10x_StdPeriph_Lib_V3.4.0/Libraries/CMSIS/CM3/CoreSupport/core_cm3.c **** uint32_t __get_PSP(void)
 444:../STM32F10x_StdPeriph_Lib_V3.4.0/Libraries/CMSIS/CM3/CoreSupport/core_cm3.c **** {
 901              		.loc 1 444 0
 902              		.cfi_startproc
 903              		@ Naked Function: prologue and epilogue provided by programmer.
 904              		@ args = 0, pretend = 0, frame = 0
 905              		@ frame_needed = 0, uses_anonymous_args = 0
 906              	.LVL0:
 445:../STM32F10x_StdPeriph_Lib_V3.4.0/Libraries/CMSIS/CM3/CoreSupport/core_cm3.c ****   uint32_t result=0;
 446:../STM32F10x_StdPeriph_Lib_V3.4.0/Libraries/CMSIS/CM3/CoreSupport/core_cm3.c **** 
 447:../STM32F10x_StdPeriph_Lib_V3.4.0/Libraries/CMSIS/CM3/CoreSupport/core_cm3.c ****   __ASM volatile ("MRS %0, psp\n\t" 
 907              		.loc 1 447 0
 908              	@ 447 "../STM32F10x_StdPeriph_Lib_V3.4.0/Libraries/CMSIS/CM3/CoreSupport/core_cm3.c" 1
 909 0000 EFF30980 		MRS r0, psp
 910 0004 0046     		MOV r0, r0 
 911 0006 7047     		BX  lr     
 912              		
 913              	@ 0 "" 2
 914              	.LVL1:
 448:../STM32F10x_StdPeriph_Lib_V3.4.0/Libraries/CMSIS/CM3/CoreSupport/core_cm3.c ****                   "MOV r0, %0 \n\t"
 449:../STM32F10x_StdPeriph_Lib_V3.4.0/Libraries/CMSIS/CM3/CoreSupport/core_cm3.c ****                   "BX  lr     \n\t"  : "=r" (result) );
 450:../STM32F10x_StdPeriph_Lib_V3.4.0/Libraries/CMSIS/CM3/CoreSupport/core_cm3.c ****   return(result);
 451:../STM32F10x_StdPeriph_Lib_V3.4.0/Libraries/CMSIS/CM3/CoreSupport/core_cm3.c **** }
 915              		.loc 1 451 0
 916              		.thumb
 917              		.cfi_endproc
 918              	.LFE0:
 920              		.align	1
 921              		.global	__set_PSP
 922              		.thumb
 923              		.thumb_func
 925              	__set_PSP:
 926              	.LFB1:
 452:../STM32F10x_StdPeriph_Lib_V3.4.0/Libraries/CMSIS/CM3/CoreSupport/core_cm3.c **** 
 453:../STM32F10x_StdPeriph_Lib_V3.4.0/Libraries/CMSIS/CM3/CoreSupport/core_cm3.c **** /**
 454:../STM32F10x_StdPeriph_Lib_V3.4.0/Libraries/CMSIS/CM3/CoreSupport/core_cm3.c ****  * @brief  Set the Process Stack Pointer
 455:../STM32F10x_StdPeriph_Lib_V3.4.0/Libraries/CMSIS/CM3/CoreSupport/core_cm3.c ****  *
 456:../STM32F10x_StdPeriph_Lib_V3.4.0/Libraries/CMSIS/CM3/CoreSupport/core_cm3.c ****  * @param  topOfProcStack  Process Stack Pointer
 457:../STM32F10x_StdPeriph_Lib_V3.4.0/Libraries/CMSIS/CM3/CoreSupport/core_cm3.c ****  *
 458:../STM32F10x_StdPeriph_Lib_V3.4.0/Libraries/CMSIS/CM3/CoreSupport/core_cm3.c ****  * Assign the value ProcessStackPointer to the MSP 
 459:../STM32F10x_StdPeriph_Lib_V3.4.0/Libraries/CMSIS/CM3/CoreSupport/core_cm3.c ****  * (process stack pointer) Cortex processor register
 460:../STM32F10x_StdPeriph_Lib_V3.4.0/Libraries/CMSIS/CM3/CoreSupport/core_cm3.c ****  */
 461:../STM32F10x_StdPeriph_Lib_V3.4.0/Libraries/CMSIS/CM3/CoreSupport/core_cm3.c **** void __set_PSP(uint32_t topOfProcStack) __attribute__( ( naked ) );
 462:../STM32F10x_StdPeriph_Lib_V3.4.0/Libraries/CMSIS/CM3/CoreSupport/core_cm3.c **** void __set_PSP(uint32_t topOfProcStack)
 463:../STM32F10x_StdPeriph_Lib_V3.4.0/Libraries/CMSIS/CM3/CoreSupport/core_cm3.c **** {
 927              		.loc 1 463 0
 928              		.cfi_startproc
 929              		@ Naked Function: prologue and epilogue provided by programmer.
 930              		@ args = 0, pretend = 0, frame = 0
 931              		@ frame_needed = 0, uses_anonymous_args = 0
 932              	.LVL2:
 464:../STM32F10x_StdPeriph_Lib_V3.4.0/Libraries/CMSIS/CM3/CoreSupport/core_cm3.c ****   __ASM volatile ("MSR psp, %0\n\t"
 933              		.loc 1 464 0
 934              	@ 464 "../STM32F10x_StdPeriph_Lib_V3.4.0/Libraries/CMSIS/CM3/CoreSupport/core_cm3.c" 1
 935 0008 80F30988 		MSR psp, r0
 936 000c 7047     		BX  lr     
 937              		
 938              	@ 0 "" 2
 465:../STM32F10x_StdPeriph_Lib_V3.4.0/Libraries/CMSIS/CM3/CoreSupport/core_cm3.c ****                   "BX  lr     \n\t" : : "r" (topOfProcStack) );
 466:../STM32F10x_StdPeriph_Lib_V3.4.0/Libraries/CMSIS/CM3/CoreSupport/core_cm3.c **** }
 939              		.loc 1 466 0
 940              		.thumb
 941              		.cfi_endproc
 942              	.LFE1:
 944              		.align	1
 945              		.global	__get_MSP
 946              		.thumb
 947              		.thumb_func
 949              	__get_MSP:
 950              	.LFB2:
 467:../STM32F10x_StdPeriph_Lib_V3.4.0/Libraries/CMSIS/CM3/CoreSupport/core_cm3.c **** 
 468:../STM32F10x_StdPeriph_Lib_V3.4.0/Libraries/CMSIS/CM3/CoreSupport/core_cm3.c **** /**
 469:../STM32F10x_StdPeriph_Lib_V3.4.0/Libraries/CMSIS/CM3/CoreSupport/core_cm3.c ****  * @brief  Return the Main Stack Pointer
 470:../STM32F10x_StdPeriph_Lib_V3.4.0/Libraries/CMSIS/CM3/CoreSupport/core_cm3.c ****  *
 471:../STM32F10x_StdPeriph_Lib_V3.4.0/Libraries/CMSIS/CM3/CoreSupport/core_cm3.c ****  * @return Main Stack Pointer
 472:../STM32F10x_StdPeriph_Lib_V3.4.0/Libraries/CMSIS/CM3/CoreSupport/core_cm3.c ****  *
 473:../STM32F10x_StdPeriph_Lib_V3.4.0/Libraries/CMSIS/CM3/CoreSupport/core_cm3.c ****  * Return the current value of the MSP (main stack pointer)
 474:../STM32F10x_StdPeriph_Lib_V3.4.0/Libraries/CMSIS/CM3/CoreSupport/core_cm3.c ****  * Cortex processor register
 475:../STM32F10x_StdPeriph_Lib_V3.4.0/Libraries/CMSIS/CM3/CoreSupport/core_cm3.c ****  */
 476:../STM32F10x_StdPeriph_Lib_V3.4.0/Libraries/CMSIS/CM3/CoreSupport/core_cm3.c **** uint32_t __get_MSP(void) __attribute__( ( naked ) );
 477:../STM32F10x_StdPeriph_Lib_V3.4.0/Libraries/CMSIS/CM3/CoreSupport/core_cm3.c **** uint32_t __get_MSP(void)
 478:../STM32F10x_StdPeriph_Lib_V3.4.0/Libraries/CMSIS/CM3/CoreSupport/core_cm3.c **** {
 951              		.loc 1 478 0
 952              		.cfi_startproc
 953              		@ Naked Function: prologue and epilogue provided by programmer.
 954              		@ args = 0, pretend = 0, frame = 0
 955              		@ frame_needed = 0, uses_anonymous_args = 0
 956              	.LVL3:
 479:../STM32F10x_StdPeriph_Lib_V3.4.0/Libraries/CMSIS/CM3/CoreSupport/core_cm3.c ****   uint32_t result=0;
 480:../STM32F10x_StdPeriph_Lib_V3.4.0/Libraries/CMSIS/CM3/CoreSupport/core_cm3.c **** 
 481:../STM32F10x_StdPeriph_Lib_V3.4.0/Libraries/CMSIS/CM3/CoreSupport/core_cm3.c ****   __ASM volatile ("MRS %0, msp\n\t" 
 957              		.loc 1 481 0
 958              	@ 481 "../STM32F10x_StdPeriph_Lib_V3.4.0/Libraries/CMSIS/CM3/CoreSupport/core_cm3.c" 1
 959 000e EFF30880 		MRS r0, msp
 960 0012 0046     		MOV r0, r0 
 961 0014 7047     		BX  lr     
 962              		
 963              	@ 0 "" 2
 964              	.LVL4:
 482:../STM32F10x_StdPeriph_Lib_V3.4.0/Libraries/CMSIS/CM3/CoreSupport/core_cm3.c ****                   "MOV r0, %0 \n\t"
 483:../STM32F10x_StdPeriph_Lib_V3.4.0/Libraries/CMSIS/CM3/CoreSupport/core_cm3.c ****                   "BX  lr     \n\t"  : "=r" (result) );
 484:../STM32F10x_StdPeriph_Lib_V3.4.0/Libraries/CMSIS/CM3/CoreSupport/core_cm3.c ****   return(result);
 485:../STM32F10x_StdPeriph_Lib_V3.4.0/Libraries/CMSIS/CM3/CoreSupport/core_cm3.c **** }
 965              		.loc 1 485 0
 966              		.thumb
 967              		.cfi_endproc
 968              	.LFE2:
 970              		.align	1
 971              		.global	__set_MSP
 972              		.thumb
 973              		.thumb_func
 975              	__set_MSP:
 976              	.LFB3:
 486:../STM32F10x_StdPeriph_Lib_V3.4.0/Libraries/CMSIS/CM3/CoreSupport/core_cm3.c **** 
 487:../STM32F10x_StdPeriph_Lib_V3.4.0/Libraries/CMSIS/CM3/CoreSupport/core_cm3.c **** /**
 488:../STM32F10x_StdPeriph_Lib_V3.4.0/Libraries/CMSIS/CM3/CoreSupport/core_cm3.c ****  * @brief  Set the Main Stack Pointer
 489:../STM32F10x_StdPeriph_Lib_V3.4.0/Libraries/CMSIS/CM3/CoreSupport/core_cm3.c ****  *
 490:../STM32F10x_StdPeriph_Lib_V3.4.0/Libraries/CMSIS/CM3/CoreSupport/core_cm3.c ****  * @param  topOfMainStack  Main Stack Pointer
 491:../STM32F10x_StdPeriph_Lib_V3.4.0/Libraries/CMSIS/CM3/CoreSupport/core_cm3.c ****  *
 492:../STM32F10x_StdPeriph_Lib_V3.4.0/Libraries/CMSIS/CM3/CoreSupport/core_cm3.c ****  * Assign the value mainStackPointer to the MSP 
 493:../STM32F10x_StdPeriph_Lib_V3.4.0/Libraries/CMSIS/CM3/CoreSupport/core_cm3.c ****  * (main stack pointer) Cortex processor register
 494:../STM32F10x_StdPeriph_Lib_V3.4.0/Libraries/CMSIS/CM3/CoreSupport/core_cm3.c ****  */
 495:../STM32F10x_StdPeriph_Lib_V3.4.0/Libraries/CMSIS/CM3/CoreSupport/core_cm3.c **** void __set_MSP(uint32_t topOfMainStack) __attribute__( ( naked ) );
 496:../STM32F10x_StdPeriph_Lib_V3.4.0/Libraries/CMSIS/CM3/CoreSupport/core_cm3.c **** void __set_MSP(uint32_t topOfMainStack)
 497:../STM32F10x_StdPeriph_Lib_V3.4.0/Libraries/CMSIS/CM3/CoreSupport/core_cm3.c **** {
 977              		.loc 1 497 0
 978              		.cfi_startproc
 979              		@ Naked Function: prologue and epilogue provided by programmer.
 980              		@ args = 0, pretend = 0, frame = 0
 981              		@ frame_needed = 0, uses_anonymous_args = 0
 982              	.LVL5:
 498:../STM32F10x_StdPeriph_Lib_V3.4.0/Libraries/CMSIS/CM3/CoreSupport/core_cm3.c ****   __ASM volatile ("MSR msp, %0\n\t"
 983              		.loc 1 498 0
 984              	@ 498 "../STM32F10x_StdPeriph_Lib_V3.4.0/Libraries/CMSIS/CM3/CoreSupport/core_cm3.c" 1
 985 0016 80F30888 		MSR msp, r0
 986 001a 7047     		BX  lr     
 987              		
 988              	@ 0 "" 2
 499:../STM32F10x_StdPeriph_Lib_V3.4.0/Libraries/CMSIS/CM3/CoreSupport/core_cm3.c ****                   "BX  lr     \n\t" : : "r" (topOfMainStack) );
 500:../STM32F10x_StdPeriph_Lib_V3.4.0/Libraries/CMSIS/CM3/CoreSupport/core_cm3.c **** }
 989              		.loc 1 500 0
 990              		.thumb
 991              		.cfi_endproc
 992              	.LFE3:
 994              		.align	1
 995              		.global	__get_BASEPRI
 996              		.thumb
 997              		.thumb_func
 999              	__get_BASEPRI:
 1000              	.LFB4:
 501:../STM32F10x_StdPeriph_Lib_V3.4.0/Libraries/CMSIS/CM3/CoreSupport/core_cm3.c **** 
 502:../STM32F10x_StdPeriph_Lib_V3.4.0/Libraries/CMSIS/CM3/CoreSupport/core_cm3.c **** /**
 503:../STM32F10x_StdPeriph_Lib_V3.4.0/Libraries/CMSIS/CM3/CoreSupport/core_cm3.c ****  * @brief  Return the Base Priority value
 504:../STM32F10x_StdPeriph_Lib_V3.4.0/Libraries/CMSIS/CM3/CoreSupport/core_cm3.c ****  *
 505:../STM32F10x_StdPeriph_Lib_V3.4.0/Libraries/CMSIS/CM3/CoreSupport/core_cm3.c ****  * @return BasePriority
 506:../STM32F10x_StdPeriph_Lib_V3.4.0/Libraries/CMSIS/CM3/CoreSupport/core_cm3.c ****  *
 507:../STM32F10x_StdPeriph_Lib_V3.4.0/Libraries/CMSIS/CM3/CoreSupport/core_cm3.c ****  * Return the content of the base priority register
 508:../STM32F10x_StdPeriph_Lib_V3.4.0/Libraries/CMSIS/CM3/CoreSupport/core_cm3.c ****  */
 509:../STM32F10x_StdPeriph_Lib_V3.4.0/Libraries/CMSIS/CM3/CoreSupport/core_cm3.c **** uint32_t __get_BASEPRI(void)
 510:../STM32F10x_StdPeriph_Lib_V3.4.0/Libraries/CMSIS/CM3/CoreSupport/core_cm3.c **** {
 1001              		.loc 1 510 0
 1002              		.cfi_startproc
 1003              		@ args = 0, pretend = 0, frame = 0
 1004              		@ frame_needed = 0, uses_anonymous_args = 0
 1005              		@ link register save eliminated.
 1006              	.LVL6:
 511:../STM32F10x_StdPeriph_Lib_V3.4.0/Libraries/CMSIS/CM3/CoreSupport/core_cm3.c ****   uint32_t result=0;
 512:../STM32F10x_StdPeriph_Lib_V3.4.0/Libraries/CMSIS/CM3/CoreSupport/core_cm3.c ****   
 513:../STM32F10x_StdPeriph_Lib_V3.4.0/Libraries/CMSIS/CM3/CoreSupport/core_cm3.c ****   __ASM volatile ("MRS %0, basepri_max" : "=r" (result) );
 1007              		.loc 1 513 0
 1008              	@ 513 "../STM32F10x_StdPeriph_Lib_V3.4.0/Libraries/CMSIS/CM3/CoreSupport/core_cm3.c" 1
 1009 001c EFF31280 		MRS r0, basepri_max
 1010              	@ 0 "" 2
 1011              	.LVL7:
 514:../STM32F10x_StdPeriph_Lib_V3.4.0/Libraries/CMSIS/CM3/CoreSupport/core_cm3.c ****   return(result);
 515:../STM32F10x_StdPeriph_Lib_V3.4.0/Libraries/CMSIS/CM3/CoreSupport/core_cm3.c **** }
 1012              		.loc 1 515 0
 1013              		.thumb
 1014 0020 7047     		bx	lr
 1015              		.cfi_endproc
 1016              	.LFE4:
 1018              		.align	1
 1019              		.global	__set_BASEPRI
 1020              		.thumb
 1021              		.thumb_func
 1023              	__set_BASEPRI:
 1024              	.LFB5:
 516:../STM32F10x_StdPeriph_Lib_V3.4.0/Libraries/CMSIS/CM3/CoreSupport/core_cm3.c **** 
 517:../STM32F10x_StdPeriph_Lib_V3.4.0/Libraries/CMSIS/CM3/CoreSupport/core_cm3.c **** /**
 518:../STM32F10x_StdPeriph_Lib_V3.4.0/Libraries/CMSIS/CM3/CoreSupport/core_cm3.c ****  * @brief  Set the Base Priority value
 519:../STM32F10x_StdPeriph_Lib_V3.4.0/Libraries/CMSIS/CM3/CoreSupport/core_cm3.c ****  *
 520:../STM32F10x_StdPeriph_Lib_V3.4.0/Libraries/CMSIS/CM3/CoreSupport/core_cm3.c ****  * @param  basePri  BasePriority
 521:../STM32F10x_StdPeriph_Lib_V3.4.0/Libraries/CMSIS/CM3/CoreSupport/core_cm3.c ****  *
 522:../STM32F10x_StdPeriph_Lib_V3.4.0/Libraries/CMSIS/CM3/CoreSupport/core_cm3.c ****  * Set the base priority register
 523:../STM32F10x_StdPeriph_Lib_V3.4.0/Libraries/CMSIS/CM3/CoreSupport/core_cm3.c ****  */
 524:../STM32F10x_StdPeriph_Lib_V3.4.0/Libraries/CMSIS/CM3/CoreSupport/core_cm3.c **** void __set_BASEPRI(uint32_t value)
 525:../STM32F10x_StdPeriph_Lib_V3.4.0/Libraries/CMSIS/CM3/CoreSupport/core_cm3.c **** {
 1025              		.loc 1 525 0
 1026              		.cfi_startproc
 1027              		@ args = 0, pretend = 0, frame = 0
 1028              		@ frame_needed = 0, uses_anonymous_args = 0
 1029              		@ link register save eliminated.
 1030              	.LVL8:
 526:../STM32F10x_StdPeriph_Lib_V3.4.0/Libraries/CMSIS/CM3/CoreSupport/core_cm3.c ****   __ASM volatile ("MSR basepri, %0" : : "r" (value) );
 1031              		.loc 1 526 0
 1032              	@ 526 "../STM32F10x_StdPeriph_Lib_V3.4.0/Libraries/CMSIS/CM3/CoreSupport/core_cm3.c" 1
 1033 0022 80F31188 		MSR basepri, r0
 1034              	@ 0 "" 2
 527:../STM32F10x_StdPeriph_Lib_V3.4.0/Libraries/CMSIS/CM3/CoreSupport/core_cm3.c **** }
 1035              		.loc 1 527 0
 1036              		.thumb
 1037 0026 7047     		bx	lr
 1038              		.cfi_endproc
 1039              	.LFE5:
 1041              		.align	1
 1042              		.global	__get_PRIMASK
 1043              		.thumb
 1044              		.thumb_func
 1046              	__get_PRIMASK:
 1047              	.LFB6:
 528:../STM32F10x_StdPeriph_Lib_V3.4.0/Libraries/CMSIS/CM3/CoreSupport/core_cm3.c **** 
 529:../STM32F10x_StdPeriph_Lib_V3.4.0/Libraries/CMSIS/CM3/CoreSupport/core_cm3.c **** /**
 530:../STM32F10x_StdPeriph_Lib_V3.4.0/Libraries/CMSIS/CM3/CoreSupport/core_cm3.c ****  * @brief  Return the Priority Mask value
 531:../STM32F10x_StdPeriph_Lib_V3.4.0/Libraries/CMSIS/CM3/CoreSupport/core_cm3.c ****  *
 532:../STM32F10x_StdPeriph_Lib_V3.4.0/Libraries/CMSIS/CM3/CoreSupport/core_cm3.c ****  * @return PriMask
 533:../STM32F10x_StdPeriph_Lib_V3.4.0/Libraries/CMSIS/CM3/CoreSupport/core_cm3.c ****  *
 534:../STM32F10x_StdPeriph_Lib_V3.4.0/Libraries/CMSIS/CM3/CoreSupport/core_cm3.c ****  * Return state of the priority mask bit from the priority mask register
 535:../STM32F10x_StdPeriph_Lib_V3.4.0/Libraries/CMSIS/CM3/CoreSupport/core_cm3.c ****  */
 536:../STM32F10x_StdPeriph_Lib_V3.4.0/Libraries/CMSIS/CM3/CoreSupport/core_cm3.c **** uint32_t __get_PRIMASK(void)
 537:../STM32F10x_StdPeriph_Lib_V3.4.0/Libraries/CMSIS/CM3/CoreSupport/core_cm3.c **** {
 1048              		.loc 1 537 0
 1049              		.cfi_startproc
 1050              		@ args = 0, pretend = 0, frame = 0
 1051              		@ frame_needed = 0, uses_anonymous_args = 0
 1052              		@ link register save eliminated.
 1053              	.LVL9:
 538:../STM32F10x_StdPeriph_Lib_V3.4.0/Libraries/CMSIS/CM3/CoreSupport/core_cm3.c ****   uint32_t result=0;
 539:../STM32F10x_StdPeriph_Lib_V3.4.0/Libraries/CMSIS/CM3/CoreSupport/core_cm3.c **** 
 540:../STM32F10x_StdPeriph_Lib_V3.4.0/Libraries/CMSIS/CM3/CoreSupport/core_cm3.c ****   __ASM volatile ("MRS %0, primask" : "=r" (result) );
 1054              		.loc 1 540 0
 1055              	@ 540 "../STM32F10x_StdPeriph_Lib_V3.4.0/Libraries/CMSIS/CM3/CoreSupport/core_cm3.c" 1
 1056 0028 EFF31080 		MRS r0, primask
 1057              	@ 0 "" 2
 1058              	.LVL10:
 541:../STM32F10x_StdPeriph_Lib_V3.4.0/Libraries/CMSIS/CM3/CoreSupport/core_cm3.c ****   return(result);
 542:../STM32F10x_StdPeriph_Lib_V3.4.0/Libraries/CMSIS/CM3/CoreSupport/core_cm3.c **** }
 1059              		.loc 1 542 0
 1060              		.thumb
 1061 002c 7047     		bx	lr
 1062              		.cfi_endproc
 1063              	.LFE6:
 1065              		.align	1
 1066              		.global	__set_PRIMASK
 1067              		.thumb
 1068              		.thumb_func
 1070              	__set_PRIMASK:
 1071              	.LFB7:
 543:../STM32F10x_StdPeriph_Lib_V3.4.0/Libraries/CMSIS/CM3/CoreSupport/core_cm3.c **** 
 544:../STM32F10x_StdPeriph_Lib_V3.4.0/Libraries/CMSIS/CM3/CoreSupport/core_cm3.c **** /**
 545:../STM32F10x_StdPeriph_Lib_V3.4.0/Libraries/CMSIS/CM3/CoreSupport/core_cm3.c ****  * @brief  Set the Priority Mask value
 546:../STM32F10x_StdPeriph_Lib_V3.4.0/Libraries/CMSIS/CM3/CoreSupport/core_cm3.c ****  *
 547:../STM32F10x_StdPeriph_Lib_V3.4.0/Libraries/CMSIS/CM3/CoreSupport/core_cm3.c ****  * @param  priMask  PriMask
 548:../STM32F10x_StdPeriph_Lib_V3.4.0/Libraries/CMSIS/CM3/CoreSupport/core_cm3.c ****  *
 549:../STM32F10x_StdPeriph_Lib_V3.4.0/Libraries/CMSIS/CM3/CoreSupport/core_cm3.c ****  * Set the priority mask bit in the priority mask register
 550:../STM32F10x_StdPeriph_Lib_V3.4.0/Libraries/CMSIS/CM3/CoreSupport/core_cm3.c ****  */
 551:../STM32F10x_StdPeriph_Lib_V3.4.0/Libraries/CMSIS/CM3/CoreSupport/core_cm3.c **** void __set_PRIMASK(uint32_t priMask)
 552:../STM32F10x_StdPeriph_Lib_V3.4.0/Libraries/CMSIS/CM3/CoreSupport/core_cm3.c **** {
 1072              		.loc 1 552 0
 1073              		.cfi_startproc
 1074              		@ args = 0, pretend = 0, frame = 0
 1075              		@ frame_needed = 0, uses_anonymous_args = 0
 1076              		@ link register save eliminated.
 1077              	.LVL11:
 553:../STM32F10x_StdPeriph_Lib_V3.4.0/Libraries/CMSIS/CM3/CoreSupport/core_cm3.c ****   __ASM volatile ("MSR primask, %0" : : "r" (priMask) );
 1078              		.loc 1 553 0
 1079              	@ 553 "../STM32F10x_StdPeriph_Lib_V3.4.0/Libraries/CMSIS/CM3/CoreSupport/core_cm3.c" 1
 1080 002e 80F31088 		MSR primask, r0
 1081              	@ 0 "" 2
 554:../STM32F10x_StdPeriph_Lib_V3.4.0/Libraries/CMSIS/CM3/CoreSupport/core_cm3.c **** }
 1082              		.loc 1 554 0
 1083              		.thumb
 1084 0032 7047     		bx	lr
 1085              		.cfi_endproc
 1086              	.LFE7:
 1088              		.align	1
 1089              		.global	__get_FAULTMASK
 1090              		.thumb
 1091              		.thumb_func
 1093              	__get_FAULTMASK:
 1094              	.LFB8:
 555:../STM32F10x_StdPeriph_Lib_V3.4.0/Libraries/CMSIS/CM3/CoreSupport/core_cm3.c **** 
 556:../STM32F10x_StdPeriph_Lib_V3.4.0/Libraries/CMSIS/CM3/CoreSupport/core_cm3.c **** /**
 557:../STM32F10x_StdPeriph_Lib_V3.4.0/Libraries/CMSIS/CM3/CoreSupport/core_cm3.c ****  * @brief  Return the Fault Mask value
 558:../STM32F10x_StdPeriph_Lib_V3.4.0/Libraries/CMSIS/CM3/CoreSupport/core_cm3.c ****  *
 559:../STM32F10x_StdPeriph_Lib_V3.4.0/Libraries/CMSIS/CM3/CoreSupport/core_cm3.c ****  * @return FaultMask
 560:../STM32F10x_StdPeriph_Lib_V3.4.0/Libraries/CMSIS/CM3/CoreSupport/core_cm3.c ****  *
 561:../STM32F10x_StdPeriph_Lib_V3.4.0/Libraries/CMSIS/CM3/CoreSupport/core_cm3.c ****  * Return the content of the fault mask register
 562:../STM32F10x_StdPeriph_Lib_V3.4.0/Libraries/CMSIS/CM3/CoreSupport/core_cm3.c ****  */
 563:../STM32F10x_StdPeriph_Lib_V3.4.0/Libraries/CMSIS/CM3/CoreSupport/core_cm3.c **** uint32_t __get_FAULTMASK(void)
 564:../STM32F10x_StdPeriph_Lib_V3.4.0/Libraries/CMSIS/CM3/CoreSupport/core_cm3.c **** {
 1095              		.loc 1 564 0
 1096              		.cfi_startproc
 1097              		@ args = 0, pretend = 0, frame = 0
 1098              		@ frame_needed = 0, uses_anonymous_args = 0
 1099              		@ link register save eliminated.
 1100              	.LVL12:
 565:../STM32F10x_StdPeriph_Lib_V3.4.0/Libraries/CMSIS/CM3/CoreSupport/core_cm3.c ****   uint32_t result=0;
 566:../STM32F10x_StdPeriph_Lib_V3.4.0/Libraries/CMSIS/CM3/CoreSupport/core_cm3.c ****   
 567:../STM32F10x_StdPeriph_Lib_V3.4.0/Libraries/CMSIS/CM3/CoreSupport/core_cm3.c ****   __ASM volatile ("MRS %0, faultmask" : "=r" (result) );
 1101              		.loc 1 567 0
 1102              	@ 567 "../STM32F10x_StdPeriph_Lib_V3.4.0/Libraries/CMSIS/CM3/CoreSupport/core_cm3.c" 1
 1103 0034 EFF31380 		MRS r0, faultmask
 1104              	@ 0 "" 2
 1105              	.LVL13:
 568:../STM32F10x_StdPeriph_Lib_V3.4.0/Libraries/CMSIS/CM3/CoreSupport/core_cm3.c ****   return(result);
 569:../STM32F10x_StdPeriph_Lib_V3.4.0/Libraries/CMSIS/CM3/CoreSupport/core_cm3.c **** }
 1106              		.loc 1 569 0
 1107              		.thumb
 1108 0038 7047     		bx	lr
 1109              		.cfi_endproc
 1110              	.LFE8:
 1112              		.align	1
 1113              		.global	__set_FAULTMASK
 1114              		.thumb
 1115              		.thumb_func
 1117              	__set_FAULTMASK:
 1118              	.LFB9:
 570:../STM32F10x_StdPeriph_Lib_V3.4.0/Libraries/CMSIS/CM3/CoreSupport/core_cm3.c **** 
 571:../STM32F10x_StdPeriph_Lib_V3.4.0/Libraries/CMSIS/CM3/CoreSupport/core_cm3.c **** /**
 572:../STM32F10x_StdPeriph_Lib_V3.4.0/Libraries/CMSIS/CM3/CoreSupport/core_cm3.c ****  * @brief  Set the Fault Mask value
 573:../STM32F10x_StdPeriph_Lib_V3.4.0/Libraries/CMSIS/CM3/CoreSupport/core_cm3.c ****  *
 574:../STM32F10x_StdPeriph_Lib_V3.4.0/Libraries/CMSIS/CM3/CoreSupport/core_cm3.c ****  * @param  faultMask  faultMask value
 575:../STM32F10x_StdPeriph_Lib_V3.4.0/Libraries/CMSIS/CM3/CoreSupport/core_cm3.c ****  *
 576:../STM32F10x_StdPeriph_Lib_V3.4.0/Libraries/CMSIS/CM3/CoreSupport/core_cm3.c ****  * Set the fault mask register
 577:../STM32F10x_StdPeriph_Lib_V3.4.0/Libraries/CMSIS/CM3/CoreSupport/core_cm3.c ****  */
 578:../STM32F10x_StdPeriph_Lib_V3.4.0/Libraries/CMSIS/CM3/CoreSupport/core_cm3.c **** void __set_FAULTMASK(uint32_t faultMask)
 579:../STM32F10x_StdPeriph_Lib_V3.4.0/Libraries/CMSIS/CM3/CoreSupport/core_cm3.c **** {
 1119              		.loc 1 579 0
 1120              		.cfi_startproc
 1121              		@ args = 0, pretend = 0, frame = 0
 1122              		@ frame_needed = 0, uses_anonymous_args = 0
 1123              		@ link register save eliminated.
 1124              	.LVL14:
 580:../STM32F10x_StdPeriph_Lib_V3.4.0/Libraries/CMSIS/CM3/CoreSupport/core_cm3.c ****   __ASM volatile ("MSR faultmask, %0" : : "r" (faultMask) );
 1125              		.loc 1 580 0
 1126              	@ 580 "../STM32F10x_StdPeriph_Lib_V3.4.0/Libraries/CMSIS/CM3/CoreSupport/core_cm3.c" 1
 1127 003a 80F31388 		MSR faultmask, r0
 1128              	@ 0 "" 2
 581:../STM32F10x_StdPeriph_Lib_V3.4.0/Libraries/CMSIS/CM3/CoreSupport/core_cm3.c **** }
 1129              		.loc 1 581 0
 1130              		.thumb
 1131 003e 7047     		bx	lr
 1132              		.cfi_endproc
 1133              	.LFE9:
 1135              		.align	1
 1136              		.global	__get_CONTROL
 1137              		.thumb
 1138              		.thumb_func
 1140              	__get_CONTROL:
 1141              	.LFB10:
 582:../STM32F10x_StdPeriph_Lib_V3.4.0/Libraries/CMSIS/CM3/CoreSupport/core_cm3.c **** 
 583:../STM32F10x_StdPeriph_Lib_V3.4.0/Libraries/CMSIS/CM3/CoreSupport/core_cm3.c **** /**
 584:../STM32F10x_StdPeriph_Lib_V3.4.0/Libraries/CMSIS/CM3/CoreSupport/core_cm3.c ****  * @brief  Return the Control Register value
 585:../STM32F10x_StdPeriph_Lib_V3.4.0/Libraries/CMSIS/CM3/CoreSupport/core_cm3.c **** * 
 586:../STM32F10x_StdPeriph_Lib_V3.4.0/Libraries/CMSIS/CM3/CoreSupport/core_cm3.c **** *  @return Control value
 587:../STM32F10x_StdPeriph_Lib_V3.4.0/Libraries/CMSIS/CM3/CoreSupport/core_cm3.c ****  *
 588:../STM32F10x_StdPeriph_Lib_V3.4.0/Libraries/CMSIS/CM3/CoreSupport/core_cm3.c ****  * Return the content of the control register
 589:../STM32F10x_StdPeriph_Lib_V3.4.0/Libraries/CMSIS/CM3/CoreSupport/core_cm3.c ****  */
 590:../STM32F10x_StdPeriph_Lib_V3.4.0/Libraries/CMSIS/CM3/CoreSupport/core_cm3.c **** uint32_t __get_CONTROL(void)
 591:../STM32F10x_StdPeriph_Lib_V3.4.0/Libraries/CMSIS/CM3/CoreSupport/core_cm3.c **** {
 1142              		.loc 1 591 0
 1143              		.cfi_startproc
 1144              		@ args = 0, pretend = 0, frame = 0
 1145              		@ frame_needed = 0, uses_anonymous_args = 0
 1146              		@ link register save eliminated.
 1147              	.LVL15:
 592:../STM32F10x_StdPeriph_Lib_V3.4.0/Libraries/CMSIS/CM3/CoreSupport/core_cm3.c ****   uint32_t result=0;
 593:../STM32F10x_StdPeriph_Lib_V3.4.0/Libraries/CMSIS/CM3/CoreSupport/core_cm3.c **** 
 594:../STM32F10x_StdPeriph_Lib_V3.4.0/Libraries/CMSIS/CM3/CoreSupport/core_cm3.c ****   __ASM volatile ("MRS %0, control" : "=r" (result) );
 1148              		.loc 1 594 0
 1149              	@ 594 "../STM32F10x_StdPeriph_Lib_V3.4.0/Libraries/CMSIS/CM3/CoreSupport/core_cm3.c" 1
 1150 0040 EFF31480 		MRS r0, control
 1151              	@ 0 "" 2
 1152              	.LVL16:
 595:../STM32F10x_StdPeriph_Lib_V3.4.0/Libraries/CMSIS/CM3/CoreSupport/core_cm3.c ****   return(result);
 596:../STM32F10x_StdPeriph_Lib_V3.4.0/Libraries/CMSIS/CM3/CoreSupport/core_cm3.c **** }
 1153              		.loc 1 596 0
 1154              		.thumb
 1155 0044 7047     		bx	lr
 1156              		.cfi_endproc
 1157              	.LFE10:
 1159              		.align	1
 1160              		.global	__set_CONTROL
 1161              		.thumb
 1162              		.thumb_func
 1164              	__set_CONTROL:
 1165              	.LFB11:
 597:../STM32F10x_StdPeriph_Lib_V3.4.0/Libraries/CMSIS/CM3/CoreSupport/core_cm3.c **** 
 598:../STM32F10x_StdPeriph_Lib_V3.4.0/Libraries/CMSIS/CM3/CoreSupport/core_cm3.c **** /**
 599:../STM32F10x_StdPeriph_Lib_V3.4.0/Libraries/CMSIS/CM3/CoreSupport/core_cm3.c ****  * @brief  Set the Control Register value
 600:../STM32F10x_StdPeriph_Lib_V3.4.0/Libraries/CMSIS/CM3/CoreSupport/core_cm3.c ****  *
 601:../STM32F10x_StdPeriph_Lib_V3.4.0/Libraries/CMSIS/CM3/CoreSupport/core_cm3.c ****  * @param  control  Control value
 602:../STM32F10x_StdPeriph_Lib_V3.4.0/Libraries/CMSIS/CM3/CoreSupport/core_cm3.c ****  *
 603:../STM32F10x_StdPeriph_Lib_V3.4.0/Libraries/CMSIS/CM3/CoreSupport/core_cm3.c ****  * Set the control register
 604:../STM32F10x_StdPeriph_Lib_V3.4.0/Libraries/CMSIS/CM3/CoreSupport/core_cm3.c ****  */
 605:../STM32F10x_StdPeriph_Lib_V3.4.0/Libraries/CMSIS/CM3/CoreSupport/core_cm3.c **** void __set_CONTROL(uint32_t control)
 606:../STM32F10x_StdPeriph_Lib_V3.4.0/Libraries/CMSIS/CM3/CoreSupport/core_cm3.c **** {
 1166              		.loc 1 606 0
 1167              		.cfi_startproc
 1168              		@ args = 0, pretend = 0, frame = 0
 1169              		@ frame_needed = 0, uses_anonymous_args = 0
 1170              		@ link register save eliminated.
 1171              	.LVL17:
 607:../STM32F10x_StdPeriph_Lib_V3.4.0/Libraries/CMSIS/CM3/CoreSupport/core_cm3.c ****   __ASM volatile ("MSR control, %0" : : "r" (control) );
 1172              		.loc 1 607 0
 1173              	@ 607 "../STM32F10x_StdPeriph_Lib_V3.4.0/Libraries/CMSIS/CM3/CoreSupport/core_cm3.c" 1
 1174 0046 80F31488 		MSR control, r0
 1175              	@ 0 "" 2
 608:../STM32F10x_StdPeriph_Lib_V3.4.0/Libraries/CMSIS/CM3/CoreSupport/core_cm3.c **** }
 1176              		.loc 1 608 0
 1177              		.thumb
 1178 004a 7047     		bx	lr
 1179              		.cfi_endproc
 1180              	.LFE11:
 1182              		.align	1
 1183              		.global	__REV
 1184              		.thumb
 1185              		.thumb_func
 1187              	__REV:
 1188              	.LFB12:
 609:../STM32F10x_StdPeriph_Lib_V3.4.0/Libraries/CMSIS/CM3/CoreSupport/core_cm3.c **** 
 610:../STM32F10x_StdPeriph_Lib_V3.4.0/Libraries/CMSIS/CM3/CoreSupport/core_cm3.c **** 
 611:../STM32F10x_StdPeriph_Lib_V3.4.0/Libraries/CMSIS/CM3/CoreSupport/core_cm3.c **** /**
 612:../STM32F10x_StdPeriph_Lib_V3.4.0/Libraries/CMSIS/CM3/CoreSupport/core_cm3.c ****  * @brief  Reverse byte order in integer value
 613:../STM32F10x_StdPeriph_Lib_V3.4.0/Libraries/CMSIS/CM3/CoreSupport/core_cm3.c ****  *
 614:../STM32F10x_StdPeriph_Lib_V3.4.0/Libraries/CMSIS/CM3/CoreSupport/core_cm3.c ****  * @param  value  value to reverse
 615:../STM32F10x_StdPeriph_Lib_V3.4.0/Libraries/CMSIS/CM3/CoreSupport/core_cm3.c ****  * @return        reversed value
 616:../STM32F10x_StdPeriph_Lib_V3.4.0/Libraries/CMSIS/CM3/CoreSupport/core_cm3.c ****  *
 617:../STM32F10x_StdPeriph_Lib_V3.4.0/Libraries/CMSIS/CM3/CoreSupport/core_cm3.c ****  * Reverse byte order in integer value
 618:../STM32F10x_StdPeriph_Lib_V3.4.0/Libraries/CMSIS/CM3/CoreSupport/core_cm3.c ****  */
 619:../STM32F10x_StdPeriph_Lib_V3.4.0/Libraries/CMSIS/CM3/CoreSupport/core_cm3.c **** uint32_t __REV(uint32_t value)
 620:../STM32F10x_StdPeriph_Lib_V3.4.0/Libraries/CMSIS/CM3/CoreSupport/core_cm3.c **** {
 1189              		.loc 1 620 0
 1190              		.cfi_startproc
 1191              		@ args = 0, pretend = 0, frame = 0
 1192              		@ frame_needed = 0, uses_anonymous_args = 0
 1193              		@ link register save eliminated.
 1194              	.LVL18:
 621:../STM32F10x_StdPeriph_Lib_V3.4.0/Libraries/CMSIS/CM3/CoreSupport/core_cm3.c ****   uint32_t result=0;
 622:../STM32F10x_StdPeriph_Lib_V3.4.0/Libraries/CMSIS/CM3/CoreSupport/core_cm3.c ****   
 623:../STM32F10x_StdPeriph_Lib_V3.4.0/Libraries/CMSIS/CM3/CoreSupport/core_cm3.c ****   __ASM volatile ("rev %0, %1" : "=r" (result) : "r" (value) );
 1195              		.loc 1 623 0
 1196              	@ 623 "../STM32F10x_StdPeriph_Lib_V3.4.0/Libraries/CMSIS/CM3/CoreSupport/core_cm3.c" 1
 1197 004c 00BA     		rev r0, r0
 1198              	@ 0 "" 2
 1199              	.LVL19:
 624:../STM32F10x_StdPeriph_Lib_V3.4.0/Libraries/CMSIS/CM3/CoreSupport/core_cm3.c ****   return(result);
 625:../STM32F10x_StdPeriph_Lib_V3.4.0/Libraries/CMSIS/CM3/CoreSupport/core_cm3.c **** }
 1200              		.loc 1 625 0
 1201              		.thumb
 1202 004e 7047     		bx	lr
 1203              		.cfi_endproc
 1204              	.LFE12:
 1206              		.align	1
 1207              		.global	__REV16
 1208              		.thumb
 1209              		.thumb_func
 1211              	__REV16:
 1212              	.LFB13:
 626:../STM32F10x_StdPeriph_Lib_V3.4.0/Libraries/CMSIS/CM3/CoreSupport/core_cm3.c **** 
 627:../STM32F10x_StdPeriph_Lib_V3.4.0/Libraries/CMSIS/CM3/CoreSupport/core_cm3.c **** /**
 628:../STM32F10x_StdPeriph_Lib_V3.4.0/Libraries/CMSIS/CM3/CoreSupport/core_cm3.c ****  * @brief  Reverse byte order in unsigned short value
 629:../STM32F10x_StdPeriph_Lib_V3.4.0/Libraries/CMSIS/CM3/CoreSupport/core_cm3.c ****  *
 630:../STM32F10x_StdPeriph_Lib_V3.4.0/Libraries/CMSIS/CM3/CoreSupport/core_cm3.c ****  * @param  value  value to reverse
 631:../STM32F10x_StdPeriph_Lib_V3.4.0/Libraries/CMSIS/CM3/CoreSupport/core_cm3.c ****  * @return        reversed value
 632:../STM32F10x_StdPeriph_Lib_V3.4.0/Libraries/CMSIS/CM3/CoreSupport/core_cm3.c ****  *
 633:../STM32F10x_StdPeriph_Lib_V3.4.0/Libraries/CMSIS/CM3/CoreSupport/core_cm3.c ****  * Reverse byte order in unsigned short value
 634:../STM32F10x_StdPeriph_Lib_V3.4.0/Libraries/CMSIS/CM3/CoreSupport/core_cm3.c ****  */
 635:../STM32F10x_StdPeriph_Lib_V3.4.0/Libraries/CMSIS/CM3/CoreSupport/core_cm3.c **** uint32_t __REV16(uint16_t value)
 636:../STM32F10x_StdPeriph_Lib_V3.4.0/Libraries/CMSIS/CM3/CoreSupport/core_cm3.c **** {
 1213              		.loc 1 636 0
 1214              		.cfi_startproc
 1215              		@ args = 0, pretend = 0, frame = 0
 1216              		@ frame_needed = 0, uses_anonymous_args = 0
 1217              		@ link register save eliminated.
 1218              	.LVL20:
 637:../STM32F10x_StdPeriph_Lib_V3.4.0/Libraries/CMSIS/CM3/CoreSupport/core_cm3.c ****   uint32_t result=0;
 638:../STM32F10x_StdPeriph_Lib_V3.4.0/Libraries/CMSIS/CM3/CoreSupport/core_cm3.c ****   
 639:../STM32F10x_StdPeriph_Lib_V3.4.0/Libraries/CMSIS/CM3/CoreSupport/core_cm3.c ****   __ASM volatile ("rev16 %0, %1" : "=r" (result) : "r" (value) );
 1219              		.loc 1 639 0
 1220              	@ 639 "../STM32F10x_StdPeriph_Lib_V3.4.0/Libraries/CMSIS/CM3/CoreSupport/core_cm3.c" 1
 1221 0050 40BA     		rev16 r0, r0
 1222              	@ 0 "" 2
 1223              	.LVL21:
 640:../STM32F10x_StdPeriph_Lib_V3.4.0/Libraries/CMSIS/CM3/CoreSupport/core_cm3.c ****   return(result);
 641:../STM32F10x_StdPeriph_Lib_V3.4.0/Libraries/CMSIS/CM3/CoreSupport/core_cm3.c **** }
 1224              		.loc 1 641 0
 1225              		.thumb
 1226 0052 7047     		bx	lr
 1227              		.cfi_endproc
 1228              	.LFE13:
 1230              		.align	1
 1231              		.global	__REVSH
 1232              		.thumb
 1233              		.thumb_func
 1235              	__REVSH:
 1236              	.LFB14:
 642:../STM32F10x_StdPeriph_Lib_V3.4.0/Libraries/CMSIS/CM3/CoreSupport/core_cm3.c **** 
 643:../STM32F10x_StdPeriph_Lib_V3.4.0/Libraries/CMSIS/CM3/CoreSupport/core_cm3.c **** /**
 644:../STM32F10x_StdPeriph_Lib_V3.4.0/Libraries/CMSIS/CM3/CoreSupport/core_cm3.c ****  * @brief  Reverse byte order in signed short value with sign extension to integer
 645:../STM32F10x_StdPeriph_Lib_V3.4.0/Libraries/CMSIS/CM3/CoreSupport/core_cm3.c ****  *
 646:../STM32F10x_StdPeriph_Lib_V3.4.0/Libraries/CMSIS/CM3/CoreSupport/core_cm3.c ****  * @param  value  value to reverse
 647:../STM32F10x_StdPeriph_Lib_V3.4.0/Libraries/CMSIS/CM3/CoreSupport/core_cm3.c ****  * @return        reversed value
 648:../STM32F10x_StdPeriph_Lib_V3.4.0/Libraries/CMSIS/CM3/CoreSupport/core_cm3.c ****  *
 649:../STM32F10x_StdPeriph_Lib_V3.4.0/Libraries/CMSIS/CM3/CoreSupport/core_cm3.c ****  * Reverse byte order in signed short value with sign extension to integer
 650:../STM32F10x_StdPeriph_Lib_V3.4.0/Libraries/CMSIS/CM3/CoreSupport/core_cm3.c ****  */
 651:../STM32F10x_StdPeriph_Lib_V3.4.0/Libraries/CMSIS/CM3/CoreSupport/core_cm3.c **** int32_t __REVSH(int16_t value)
 652:../STM32F10x_StdPeriph_Lib_V3.4.0/Libraries/CMSIS/CM3/CoreSupport/core_cm3.c **** {
 1237              		.loc 1 652 0
 1238              		.cfi_startproc
 1239              		@ args = 0, pretend = 0, frame = 0
 1240              		@ frame_needed = 0, uses_anonymous_args = 0
 1241              		@ link register save eliminated.
 1242              	.LVL22:
 653:../STM32F10x_StdPeriph_Lib_V3.4.0/Libraries/CMSIS/CM3/CoreSupport/core_cm3.c ****   uint32_t result=0;
 654:../STM32F10x_StdPeriph_Lib_V3.4.0/Libraries/CMSIS/CM3/CoreSupport/core_cm3.c ****   
 655:../STM32F10x_StdPeriph_Lib_V3.4.0/Libraries/CMSIS/CM3/CoreSupport/core_cm3.c ****   __ASM volatile ("revsh %0, %1" : "=r" (result) : "r" (value) );
 1243              		.loc 1 655 0
 1244              	@ 655 "../STM32F10x_StdPeriph_Lib_V3.4.0/Libraries/CMSIS/CM3/CoreSupport/core_cm3.c" 1
 1245 0054 C0BA     		revsh r0, r0
 1246              	@ 0 "" 2
 1247              	.LVL23:
 656:../STM32F10x_StdPeriph_Lib_V3.4.0/Libraries/CMSIS/CM3/CoreSupport/core_cm3.c ****   return(result);
 657:../STM32F10x_StdPeriph_Lib_V3.4.0/Libraries/CMSIS/CM3/CoreSupport/core_cm3.c **** }
 1248              		.loc 1 657 0
 1249              		.thumb
 1250 0056 7047     		bx	lr
 1251              		.cfi_endproc
 1252              	.LFE14:
 1254              		.align	1
 1255              		.global	__RBIT
 1256              		.thumb
 1257              		.thumb_func
 1259              	__RBIT:
 1260              	.LFB15:
 658:../STM32F10x_StdPeriph_Lib_V3.4.0/Libraries/CMSIS/CM3/CoreSupport/core_cm3.c **** 
 659:../STM32F10x_StdPeriph_Lib_V3.4.0/Libraries/CMSIS/CM3/CoreSupport/core_cm3.c **** /**
 660:../STM32F10x_StdPeriph_Lib_V3.4.0/Libraries/CMSIS/CM3/CoreSupport/core_cm3.c ****  * @brief  Reverse bit order of value
 661:../STM32F10x_StdPeriph_Lib_V3.4.0/Libraries/CMSIS/CM3/CoreSupport/core_cm3.c ****  *
 662:../STM32F10x_StdPeriph_Lib_V3.4.0/Libraries/CMSIS/CM3/CoreSupport/core_cm3.c ****  * @param  value  value to reverse
 663:../STM32F10x_StdPeriph_Lib_V3.4.0/Libraries/CMSIS/CM3/CoreSupport/core_cm3.c ****  * @return        reversed value
 664:../STM32F10x_StdPeriph_Lib_V3.4.0/Libraries/CMSIS/CM3/CoreSupport/core_cm3.c ****  *
 665:../STM32F10x_StdPeriph_Lib_V3.4.0/Libraries/CMSIS/CM3/CoreSupport/core_cm3.c ****  * Reverse bit order of value
 666:../STM32F10x_StdPeriph_Lib_V3.4.0/Libraries/CMSIS/CM3/CoreSupport/core_cm3.c ****  */
 667:../STM32F10x_StdPeriph_Lib_V3.4.0/Libraries/CMSIS/CM3/CoreSupport/core_cm3.c **** uint32_t __RBIT(uint32_t value)
 668:../STM32F10x_StdPeriph_Lib_V3.4.0/Libraries/CMSIS/CM3/CoreSupport/core_cm3.c **** {
 1261              		.loc 1 668 0
 1262              		.cfi_startproc
 1263              		@ args = 0, pretend = 0, frame = 0
 1264              		@ frame_needed = 0, uses_anonymous_args = 0
 1265              		@ link register save eliminated.
 1266              	.LVL24:
 669:../STM32F10x_StdPeriph_Lib_V3.4.0/Libraries/CMSIS/CM3/CoreSupport/core_cm3.c ****   uint32_t result=0;
 670:../STM32F10x_StdPeriph_Lib_V3.4.0/Libraries/CMSIS/CM3/CoreSupport/core_cm3.c ****   
 671:../STM32F10x_StdPeriph_Lib_V3.4.0/Libraries/CMSIS/CM3/CoreSupport/core_cm3.c ****    __ASM volatile ("rbit %0, %1" : "=r" (result) : "r" (value) );
 1267              		.loc 1 671 0
 1268              	@ 671 "../STM32F10x_StdPeriph_Lib_V3.4.0/Libraries/CMSIS/CM3/CoreSupport/core_cm3.c" 1
 1269 0058 90FAA0F0 		rbit r0, r0
 1270              	@ 0 "" 2
 1271              	.LVL25:
 672:../STM32F10x_StdPeriph_Lib_V3.4.0/Libraries/CMSIS/CM3/CoreSupport/core_cm3.c ****    return(result);
 673:../STM32F10x_StdPeriph_Lib_V3.4.0/Libraries/CMSIS/CM3/CoreSupport/core_cm3.c **** }
 1272              		.loc 1 673 0
 1273              		.thumb
 1274 005c 7047     		bx	lr
 1275              		.cfi_endproc
 1276              	.LFE15:
 1278              		.align	1
 1279              		.global	__LDREXB
 1280              		.thumb
 1281              		.thumb_func
 1283              	__LDREXB:
 1284              	.LFB16:
 674:../STM32F10x_StdPeriph_Lib_V3.4.0/Libraries/CMSIS/CM3/CoreSupport/core_cm3.c **** 
 675:../STM32F10x_StdPeriph_Lib_V3.4.0/Libraries/CMSIS/CM3/CoreSupport/core_cm3.c **** /**
 676:../STM32F10x_StdPeriph_Lib_V3.4.0/Libraries/CMSIS/CM3/CoreSupport/core_cm3.c ****  * @brief  LDR Exclusive (8 bit)
 677:../STM32F10x_StdPeriph_Lib_V3.4.0/Libraries/CMSIS/CM3/CoreSupport/core_cm3.c ****  *
 678:../STM32F10x_StdPeriph_Lib_V3.4.0/Libraries/CMSIS/CM3/CoreSupport/core_cm3.c ****  * @param  *addr  address pointer
 679:../STM32F10x_StdPeriph_Lib_V3.4.0/Libraries/CMSIS/CM3/CoreSupport/core_cm3.c ****  * @return        value of (*address)
 680:../STM32F10x_StdPeriph_Lib_V3.4.0/Libraries/CMSIS/CM3/CoreSupport/core_cm3.c ****  *
 681:../STM32F10x_StdPeriph_Lib_V3.4.0/Libraries/CMSIS/CM3/CoreSupport/core_cm3.c ****  * Exclusive LDR command for 8 bit value
 682:../STM32F10x_StdPeriph_Lib_V3.4.0/Libraries/CMSIS/CM3/CoreSupport/core_cm3.c ****  */
 683:../STM32F10x_StdPeriph_Lib_V3.4.0/Libraries/CMSIS/CM3/CoreSupport/core_cm3.c **** uint8_t __LDREXB(uint8_t *addr)
 684:../STM32F10x_StdPeriph_Lib_V3.4.0/Libraries/CMSIS/CM3/CoreSupport/core_cm3.c **** {
 1285              		.loc 1 684 0
 1286              		.cfi_startproc
 1287              		@ args = 0, pretend = 0, frame = 0
 1288              		@ frame_needed = 0, uses_anonymous_args = 0
 1289              		@ link register save eliminated.
 1290              	.LVL26:
 685:../STM32F10x_StdPeriph_Lib_V3.4.0/Libraries/CMSIS/CM3/CoreSupport/core_cm3.c ****     uint8_t result=0;
 686:../STM32F10x_StdPeriph_Lib_V3.4.0/Libraries/CMSIS/CM3/CoreSupport/core_cm3.c ****   
 687:../STM32F10x_StdPeriph_Lib_V3.4.0/Libraries/CMSIS/CM3/CoreSupport/core_cm3.c ****    __ASM volatile ("ldrexb %0, [%1]" : "=r" (result) : "r" (addr) );
 1291              		.loc 1 687 0
 1292              	@ 687 "../STM32F10x_StdPeriph_Lib_V3.4.0/Libraries/CMSIS/CM3/CoreSupport/core_cm3.c" 1
 1293 005e D0E84F0F 		ldrexb r0, [r0]
 1294              	@ 0 "" 2
 1295              	.LVL27:
 688:../STM32F10x_StdPeriph_Lib_V3.4.0/Libraries/CMSIS/CM3/CoreSupport/core_cm3.c ****    return(result);
 689:../STM32F10x_StdPeriph_Lib_V3.4.0/Libraries/CMSIS/CM3/CoreSupport/core_cm3.c **** }
 1296              		.loc 1 689 0
 1297              		.thumb
 1298 0062 C0B2     		uxtb	r0, r0
 1299 0064 7047     		bx	lr
 1300              		.cfi_endproc
 1301              	.LFE16:
 1303              		.align	1
 1304              		.global	__LDREXH
 1305              		.thumb
 1306              		.thumb_func
 1308              	__LDREXH:
 1309              	.LFB17:
 690:../STM32F10x_StdPeriph_Lib_V3.4.0/Libraries/CMSIS/CM3/CoreSupport/core_cm3.c **** 
 691:../STM32F10x_StdPeriph_Lib_V3.4.0/Libraries/CMSIS/CM3/CoreSupport/core_cm3.c **** /**
 692:../STM32F10x_StdPeriph_Lib_V3.4.0/Libraries/CMSIS/CM3/CoreSupport/core_cm3.c ****  * @brief  LDR Exclusive (16 bit)
 693:../STM32F10x_StdPeriph_Lib_V3.4.0/Libraries/CMSIS/CM3/CoreSupport/core_cm3.c ****  *
 694:../STM32F10x_StdPeriph_Lib_V3.4.0/Libraries/CMSIS/CM3/CoreSupport/core_cm3.c ****  * @param  *addr  address pointer
 695:../STM32F10x_StdPeriph_Lib_V3.4.0/Libraries/CMSIS/CM3/CoreSupport/core_cm3.c ****  * @return        value of (*address)
 696:../STM32F10x_StdPeriph_Lib_V3.4.0/Libraries/CMSIS/CM3/CoreSupport/core_cm3.c ****  *
 697:../STM32F10x_StdPeriph_Lib_V3.4.0/Libraries/CMSIS/CM3/CoreSupport/core_cm3.c ****  * Exclusive LDR command for 16 bit values
 698:../STM32F10x_StdPeriph_Lib_V3.4.0/Libraries/CMSIS/CM3/CoreSupport/core_cm3.c ****  */
 699:../STM32F10x_StdPeriph_Lib_V3.4.0/Libraries/CMSIS/CM3/CoreSupport/core_cm3.c **** uint16_t __LDREXH(uint16_t *addr)
 700:../STM32F10x_StdPeriph_Lib_V3.4.0/Libraries/CMSIS/CM3/CoreSupport/core_cm3.c **** {
 1310              		.loc 1 700 0
 1311              		.cfi_startproc
 1312              		@ args = 0, pretend = 0, frame = 0
 1313              		@ frame_needed = 0, uses_anonymous_args = 0
 1314              		@ link register save eliminated.
 1315              	.LVL28:
 701:../STM32F10x_StdPeriph_Lib_V3.4.0/Libraries/CMSIS/CM3/CoreSupport/core_cm3.c ****     uint16_t result=0;
 702:../STM32F10x_StdPeriph_Lib_V3.4.0/Libraries/CMSIS/CM3/CoreSupport/core_cm3.c ****   
 703:../STM32F10x_StdPeriph_Lib_V3.4.0/Libraries/CMSIS/CM3/CoreSupport/core_cm3.c ****    __ASM volatile ("ldrexh %0, [%1]" : "=r" (result) : "r" (addr) );
 1316              		.loc 1 703 0
 1317              	@ 703 "../STM32F10x_StdPeriph_Lib_V3.4.0/Libraries/CMSIS/CM3/CoreSupport/core_cm3.c" 1
 1318 0066 D0E85F0F 		ldrexh r0, [r0]
 1319              	@ 0 "" 2
 1320              	.LVL29:
 704:../STM32F10x_StdPeriph_Lib_V3.4.0/Libraries/CMSIS/CM3/CoreSupport/core_cm3.c ****    return(result);
 705:../STM32F10x_StdPeriph_Lib_V3.4.0/Libraries/CMSIS/CM3/CoreSupport/core_cm3.c **** }
 1321              		.loc 1 705 0
 1322              		.thumb
 1323 006a 80B2     		uxth	r0, r0
 1324 006c 7047     		bx	lr
 1325              		.cfi_endproc
 1326              	.LFE17:
 1328              		.align	1
 1329              		.global	__LDREXW
 1330              		.thumb
 1331              		.thumb_func
 1333              	__LDREXW:
 1334              	.LFB18:
 706:../STM32F10x_StdPeriph_Lib_V3.4.0/Libraries/CMSIS/CM3/CoreSupport/core_cm3.c **** 
 707:../STM32F10x_StdPeriph_Lib_V3.4.0/Libraries/CMSIS/CM3/CoreSupport/core_cm3.c **** /**
 708:../STM32F10x_StdPeriph_Lib_V3.4.0/Libraries/CMSIS/CM3/CoreSupport/core_cm3.c ****  * @brief  LDR Exclusive (32 bit)
 709:../STM32F10x_StdPeriph_Lib_V3.4.0/Libraries/CMSIS/CM3/CoreSupport/core_cm3.c ****  *
 710:../STM32F10x_StdPeriph_Lib_V3.4.0/Libraries/CMSIS/CM3/CoreSupport/core_cm3.c ****  * @param  *addr  address pointer
 711:../STM32F10x_StdPeriph_Lib_V3.4.0/Libraries/CMSIS/CM3/CoreSupport/core_cm3.c ****  * @return        value of (*address)
 712:../STM32F10x_StdPeriph_Lib_V3.4.0/Libraries/CMSIS/CM3/CoreSupport/core_cm3.c ****  *
 713:../STM32F10x_StdPeriph_Lib_V3.4.0/Libraries/CMSIS/CM3/CoreSupport/core_cm3.c ****  * Exclusive LDR command for 32 bit values
 714:../STM32F10x_StdPeriph_Lib_V3.4.0/Libraries/CMSIS/CM3/CoreSupport/core_cm3.c ****  */
 715:../STM32F10x_StdPeriph_Lib_V3.4.0/Libraries/CMSIS/CM3/CoreSupport/core_cm3.c **** uint32_t __LDREXW(uint32_t *addr)
 716:../STM32F10x_StdPeriph_Lib_V3.4.0/Libraries/CMSIS/CM3/CoreSupport/core_cm3.c **** {
 1335              		.loc 1 716 0
 1336              		.cfi_startproc
 1337              		@ args = 0, pretend = 0, frame = 0
 1338              		@ frame_needed = 0, uses_anonymous_args = 0
 1339              		@ link register save eliminated.
 1340              	.LVL30:
 717:../STM32F10x_StdPeriph_Lib_V3.4.0/Libraries/CMSIS/CM3/CoreSupport/core_cm3.c ****     uint32_t result=0;
 718:../STM32F10x_StdPeriph_Lib_V3.4.0/Libraries/CMSIS/CM3/CoreSupport/core_cm3.c ****   
 719:../STM32F10x_StdPeriph_Lib_V3.4.0/Libraries/CMSIS/CM3/CoreSupport/core_cm3.c ****    __ASM volatile ("ldrex %0, [%1]" : "=r" (result) : "r" (addr) );
 1341              		.loc 1 719 0
 1342              	@ 719 "../STM32F10x_StdPeriph_Lib_V3.4.0/Libraries/CMSIS/CM3/CoreSupport/core_cm3.c" 1
 1343 006e 50E8000F 		ldrex r0, [r0]
 1344              	@ 0 "" 2
 1345              	.LVL31:
 720:../STM32F10x_StdPeriph_Lib_V3.4.0/Libraries/CMSIS/CM3/CoreSupport/core_cm3.c ****    return(result);
 721:../STM32F10x_StdPeriph_Lib_V3.4.0/Libraries/CMSIS/CM3/CoreSupport/core_cm3.c **** }
 1346              		.loc 1 721 0
 1347              		.thumb
 1348 0072 7047     		bx	lr
 1349              		.cfi_endproc
 1350              	.LFE18:
 1352              		.align	1
 1353              		.global	__STREXB
 1354              		.thumb
 1355              		.thumb_func
 1357              	__STREXB:
 1358              	.LFB19:
 722:../STM32F10x_StdPeriph_Lib_V3.4.0/Libraries/CMSIS/CM3/CoreSupport/core_cm3.c **** 
 723:../STM32F10x_StdPeriph_Lib_V3.4.0/Libraries/CMSIS/CM3/CoreSupport/core_cm3.c **** /**
 724:../STM32F10x_StdPeriph_Lib_V3.4.0/Libraries/CMSIS/CM3/CoreSupport/core_cm3.c ****  * @brief  STR Exclusive (8 bit)
 725:../STM32F10x_StdPeriph_Lib_V3.4.0/Libraries/CMSIS/CM3/CoreSupport/core_cm3.c ****  *
 726:../STM32F10x_StdPeriph_Lib_V3.4.0/Libraries/CMSIS/CM3/CoreSupport/core_cm3.c ****  * @param  value  value to store
 727:../STM32F10x_StdPeriph_Lib_V3.4.0/Libraries/CMSIS/CM3/CoreSupport/core_cm3.c ****  * @param  *addr  address pointer
 728:../STM32F10x_StdPeriph_Lib_V3.4.0/Libraries/CMSIS/CM3/CoreSupport/core_cm3.c ****  * @return        successful / failed
 729:../STM32F10x_StdPeriph_Lib_V3.4.0/Libraries/CMSIS/CM3/CoreSupport/core_cm3.c ****  *
 730:../STM32F10x_StdPeriph_Lib_V3.4.0/Libraries/CMSIS/CM3/CoreSupport/core_cm3.c ****  * Exclusive STR command for 8 bit values
 731:../STM32F10x_StdPeriph_Lib_V3.4.0/Libraries/CMSIS/CM3/CoreSupport/core_cm3.c ****  */
 732:../STM32F10x_StdPeriph_Lib_V3.4.0/Libraries/CMSIS/CM3/CoreSupport/core_cm3.c **** uint32_t __STREXB(uint8_t value, uint8_t *addr)
 733:../STM32F10x_StdPeriph_Lib_V3.4.0/Libraries/CMSIS/CM3/CoreSupport/core_cm3.c **** {
 1359              		.loc 1 733 0
 1360              		.cfi_startproc
 1361              		@ args = 0, pretend = 0, frame = 0
 1362              		@ frame_needed = 0, uses_anonymous_args = 0
 1363              		@ link register save eliminated.
 1364              	.LVL32:
 734:../STM32F10x_StdPeriph_Lib_V3.4.0/Libraries/CMSIS/CM3/CoreSupport/core_cm3.c ****    uint32_t result=0;
 735:../STM32F10x_StdPeriph_Lib_V3.4.0/Libraries/CMSIS/CM3/CoreSupport/core_cm3.c ****   
 736:../STM32F10x_StdPeriph_Lib_V3.4.0/Libraries/CMSIS/CM3/CoreSupport/core_cm3.c ****    __ASM volatile ("strexb %0, %2, [%1]" : "=r" (result) : "r" (addr), "r" (value) );
 1365              		.loc 1 736 0
 1366              	@ 736 "../STM32F10x_StdPeriph_Lib_V3.4.0/Libraries/CMSIS/CM3/CoreSupport/core_cm3.c" 1
 1367 0074 C1E8400F 		strexb r0, r0, [r1]
 1368              	@ 0 "" 2
 1369              	.LVL33:
 737:../STM32F10x_StdPeriph_Lib_V3.4.0/Libraries/CMSIS/CM3/CoreSupport/core_cm3.c ****    return(result);
 738:../STM32F10x_StdPeriph_Lib_V3.4.0/Libraries/CMSIS/CM3/CoreSupport/core_cm3.c **** }
 1370              		.loc 1 738 0
 1371              		.thumb
 1372 0078 7047     		bx	lr
 1373              		.cfi_endproc
 1374              	.LFE19:
 1376              		.align	1
 1377              		.global	__STREXH
 1378              		.thumb
 1379              		.thumb_func
 1381              	__STREXH:
 1382              	.LFB20:
 739:../STM32F10x_StdPeriph_Lib_V3.4.0/Libraries/CMSIS/CM3/CoreSupport/core_cm3.c **** 
 740:../STM32F10x_StdPeriph_Lib_V3.4.0/Libraries/CMSIS/CM3/CoreSupport/core_cm3.c **** /**
 741:../STM32F10x_StdPeriph_Lib_V3.4.0/Libraries/CMSIS/CM3/CoreSupport/core_cm3.c ****  * @brief  STR Exclusive (16 bit)
 742:../STM32F10x_StdPeriph_Lib_V3.4.0/Libraries/CMSIS/CM3/CoreSupport/core_cm3.c ****  *
 743:../STM32F10x_StdPeriph_Lib_V3.4.0/Libraries/CMSIS/CM3/CoreSupport/core_cm3.c ****  * @param  value  value to store
 744:../STM32F10x_StdPeriph_Lib_V3.4.0/Libraries/CMSIS/CM3/CoreSupport/core_cm3.c ****  * @param  *addr  address pointer
 745:../STM32F10x_StdPeriph_Lib_V3.4.0/Libraries/CMSIS/CM3/CoreSupport/core_cm3.c ****  * @return        successful / failed
 746:../STM32F10x_StdPeriph_Lib_V3.4.0/Libraries/CMSIS/CM3/CoreSupport/core_cm3.c ****  *
 747:../STM32F10x_StdPeriph_Lib_V3.4.0/Libraries/CMSIS/CM3/CoreSupport/core_cm3.c ****  * Exclusive STR command for 16 bit values
 748:../STM32F10x_StdPeriph_Lib_V3.4.0/Libraries/CMSIS/CM3/CoreSupport/core_cm3.c ****  */
 749:../STM32F10x_StdPeriph_Lib_V3.4.0/Libraries/CMSIS/CM3/CoreSupport/core_cm3.c **** uint32_t __STREXH(uint16_t value, uint16_t *addr)
 750:../STM32F10x_StdPeriph_Lib_V3.4.0/Libraries/CMSIS/CM3/CoreSupport/core_cm3.c **** {
 1383              		.loc 1 750 0
 1384              		.cfi_startproc
 1385              		@ args = 0, pretend = 0, frame = 0
 1386              		@ frame_needed = 0, uses_anonymous_args = 0
 1387              		@ link register save eliminated.
 1388              	.LVL34:
 751:../STM32F10x_StdPeriph_Lib_V3.4.0/Libraries/CMSIS/CM3/CoreSupport/core_cm3.c ****    uint32_t result=0;
 752:../STM32F10x_StdPeriph_Lib_V3.4.0/Libraries/CMSIS/CM3/CoreSupport/core_cm3.c ****   
 753:../STM32F10x_StdPeriph_Lib_V3.4.0/Libraries/CMSIS/CM3/CoreSupport/core_cm3.c ****    __ASM volatile ("strexh %0, %2, [%1]" : "=r" (result) : "r" (addr), "r" (value) );
 1389              		.loc 1 753 0
 1390              	@ 753 "../STM32F10x_StdPeriph_Lib_V3.4.0/Libraries/CMSIS/CM3/CoreSupport/core_cm3.c" 1
 1391 007a C1E8500F 		strexh r0, r0, [r1]
 1392              	@ 0 "" 2
 1393              	.LVL35:
 754:../STM32F10x_StdPeriph_Lib_V3.4.0/Libraries/CMSIS/CM3/CoreSupport/core_cm3.c ****    return(result);
 755:../STM32F10x_StdPeriph_Lib_V3.4.0/Libraries/CMSIS/CM3/CoreSupport/core_cm3.c **** }
 1394              		.loc 1 755 0
 1395              		.thumb
 1396 007e 7047     		bx	lr
 1397              		.cfi_endproc
 1398              	.LFE20:
 1400              		.align	1
 1401              		.global	__STREXW
 1402              		.thumb
 1403              		.thumb_func
 1405              	__STREXW:
 1406              	.LFB21:
 756:../STM32F10x_StdPeriph_Lib_V3.4.0/Libraries/CMSIS/CM3/CoreSupport/core_cm3.c **** 
 757:../STM32F10x_StdPeriph_Lib_V3.4.0/Libraries/CMSIS/CM3/CoreSupport/core_cm3.c **** /**
 758:../STM32F10x_StdPeriph_Lib_V3.4.0/Libraries/CMSIS/CM3/CoreSupport/core_cm3.c ****  * @brief  STR Exclusive (32 bit)
 759:../STM32F10x_StdPeriph_Lib_V3.4.0/Libraries/CMSIS/CM3/CoreSupport/core_cm3.c ****  *
 760:../STM32F10x_StdPeriph_Lib_V3.4.0/Libraries/CMSIS/CM3/CoreSupport/core_cm3.c ****  * @param  value  value to store
 761:../STM32F10x_StdPeriph_Lib_V3.4.0/Libraries/CMSIS/CM3/CoreSupport/core_cm3.c ****  * @param  *addr  address pointer
 762:../STM32F10x_StdPeriph_Lib_V3.4.0/Libraries/CMSIS/CM3/CoreSupport/core_cm3.c ****  * @return        successful / failed
 763:../STM32F10x_StdPeriph_Lib_V3.4.0/Libraries/CMSIS/CM3/CoreSupport/core_cm3.c ****  *
 764:../STM32F10x_StdPeriph_Lib_V3.4.0/Libraries/CMSIS/CM3/CoreSupport/core_cm3.c ****  * Exclusive STR command for 32 bit values
 765:../STM32F10x_StdPeriph_Lib_V3.4.0/Libraries/CMSIS/CM3/CoreSupport/core_cm3.c ****  */
 766:../STM32F10x_StdPeriph_Lib_V3.4.0/Libraries/CMSIS/CM3/CoreSupport/core_cm3.c **** uint32_t __STREXW(uint32_t value, uint32_t *addr)
 767:../STM32F10x_StdPeriph_Lib_V3.4.0/Libraries/CMSIS/CM3/CoreSupport/core_cm3.c **** {
 1407              		.loc 1 767 0
 1408              		.cfi_startproc
 1409              		@ args = 0, pretend = 0, frame = 0
 1410              		@ frame_needed = 0, uses_anonymous_args = 0
 1411              		@ link register save eliminated.
 1412              	.LVL36:
 768:../STM32F10x_StdPeriph_Lib_V3.4.0/Libraries/CMSIS/CM3/CoreSupport/core_cm3.c ****    uint32_t result=0;
 769:../STM32F10x_StdPeriph_Lib_V3.4.0/Libraries/CMSIS/CM3/CoreSupport/core_cm3.c ****   
 770:../STM32F10x_StdPeriph_Lib_V3.4.0/Libraries/CMSIS/CM3/CoreSupport/core_cm3.c ****    __ASM volatile ("strex %0, %2, [%1]" : "=r" (result) : "r" (addr), "r" (value) );
 1413              		.loc 1 770 0
 1414              	@ 770 "../STM32F10x_StdPeriph_Lib_V3.4.0/Libraries/CMSIS/CM3/CoreSupport/core_cm3.c" 1
 1415 0080 41E80000 		strex r0, r0, [r1]
 1416              	@ 0 "" 2
 1417              	.LVL37:
 771:../STM32F10x_StdPeriph_Lib_V3.4.0/Libraries/CMSIS/CM3/CoreSupport/core_cm3.c ****    return(result);
 772:../STM32F10x_StdPeriph_Lib_V3.4.0/Libraries/CMSIS/CM3/CoreSupport/core_cm3.c **** }
 1418              		.loc 1 772 0
 1419              		.thumb
 1420 0084 7047     		bx	lr
 1421              		.cfi_endproc
 1422              	.LFE21:
 1424              	.Letext0: